00000000  EB61              jmp short 0x63
00000002  46                inc si
00000003  6F                outsw
00000004  7272              jc 0x78
00000006  657374            gs jnc 0x7d
00000009  59                pop cx
0000000A  0002              add [bp+si],al
0000000C  0101              add [bx+di],ax
0000000E  0002              add [bp+si],al
00000010  E000              loopne 0x12
00000012  40                inc ax
00000013  0BF0              or si,ax
00000015  0900              or [bx+si],ax
00000017  1200              adc al,[bx+si]
00000019  0200              add al,[bx+si]
0000001B  0000              add [bx+si],al
0000001D  0000              add [bx+si],al
0000001F  0000              add [bx+si],al
00000021  0000              add [bx+si],al
00000023  0000              add [bx+si],al
00000025  2900              sub [bx+si],ax
00000027  0000              add [bx+si],al
00000029  004F72            add [bx+0x72],cl
0000002C  61                popaw
0000002D  6E                outsb
0000002E  676553            gs a32 push bx
00000031  302E3032          xor [0x3230],ch
00000035  46                inc si
00000036  41                inc cx
00000037  54                push sp
00000038  3132              xor [bp+si],si
0000003A  2020              and [bx+si],ah
0000003C  2000              and [bx+si],al
0000003E  0000              add [bx+si],al
00000040  0000              add [bx+si],al
00000042  0000              add [bx+si],al
00000044  00FF              add bh,bh
00000046  FF00              inc word [bx+si]
00000048  0000              add [bx+si],al
0000004A  9ACF00FFFF        call word 0xffff:0xcf
0000004F  0000              add [bx+si],al
00000051  0092CF00          add [bp+si+0xcf],dl
00000055  FF                db 0xff
00000056  FF00              inc word [bx+si]
00000058  800BF2            or byte [bp+di],0xf2
0000005B  0000              add [bx+si],al
0000005D  1F                pop ds
0000005E  003D              add [di],bh
00000060  0109              add [bx+di],cx
00000062  008CC88E          add [si-0x7138],cl
00000066  D88EC08E          fmul dword [bp-0x7140]
0000006A  D0BC0001          sar byte [si+0x100],1
0000006E  B600              mov dh,0x0
00000070  E84401            call word 0x1b7
00000073  66BB00000000      mov ebx,0x0
00000079  BF1D06            mov di,0x61d
0000007C  66B820E80000      mov eax,0xe820
00000082  66B914000000      mov ecx,0x14
00000088  66BA50414D53      mov edx,0x534d4150
0000008E  CD15              int 0x15
00000090  7210              jc 0xa2
00000092  83C714            add di,byte +0x14
00000095  66FF06FD05        inc dword [0x5fd]
0000009A  6683FB00          cmp ebx,byte +0x0
0000009E  75DC              jnz 0x7c
000000A0  EB09              jmp short 0xab
000000A2  66C706FD05000000  mov dword [0x5fd],0x0
         -00
000000AB  C70689021300      mov word [0x289],0x13
000000B1  30E4              xor ah,ah
000000B3  30D2              xor dl,dl
000000B5  CD13              int 0x13
000000B7  833E870200        cmp word [0x287],byte +0x0
000000BC  744A              jz 0x108
000000BE  FF0E8702          dec word [0x287]
000000C2  B80080            mov ax,0x8000
000000C5  8EC0              mov es,ax
000000C7  BB0000            mov bx,0x0
000000CA  A18902            mov ax,[0x289]
000000CD  B101              mov cl,0x1
000000CF  E80401            call word 0x1d6
000000D2  BE9002            mov si,0x290
000000D5  BF0000            mov di,0x0
000000D8  FC                cld
000000D9  BA1000            mov dx,0x10
000000DC  83FA00            cmp dx,byte +0x0
000000DF  7420              jz 0x101
000000E1  4A                dec dx
000000E2  B90B00            mov cx,0xb
000000E5  83F900            cmp cx,byte +0x0
000000E8  7425              jz 0x10f
000000EA  49                dec cx
000000EB  AC                lodsb
000000EC  263A05            cmp al,[es:di]
000000EF  7402              jz 0xf3
000000F1  EB03              jmp short 0xf6
000000F3  47                inc di
000000F4  EBEF              jmp short 0xe5
000000F6  83E7E0            and di,byte -0x20
000000F9  83C720            add di,byte +0x20
000000FC  BE9002            mov si,0x290
000000FF  EBDB              jmp short 0xdc
00000101  8306890201        add word [0x289],byte +0x1
00000106  EBAF              jmp short 0xb7
00000108  B602              mov dh,0x2
0000010A  E8AA00            call word 0x1b7
0000010D  EBFE              jmp short 0x10d
0000010F  B80E00            mov ax,0xe
00000112  83E7F0            and di,byte -0x10
00000115  6650              push eax
00000117  26668B451C        mov eax,[es:di+0x1c]
0000011C  66A38C02          mov [0x28c],eax
00000120  6658              pop eax
00000122  83C71A            add di,byte +0x1a
00000125  268B0D            mov cx,[es:di]
00000128  51                push cx
00000129  01C1              add cx,ax
0000012B  83C111            add cx,byte +0x11
0000012E  B80080            mov ax,0x8000
00000131  8EC0              mov es,ax
00000133  BB0000            mov bx,0x0
00000136  89C8              mov ax,cx
00000138  50                push ax
00000139  53                push bx
0000013A  B40E              mov ah,0xe
0000013C  B02E              mov al,0x2e
0000013E  B30F              mov bl,0xf
00000140  CD10              int 0x10
00000142  5B                pop bx
00000143  58                pop ax
00000144  B101              mov cl,0x1
00000146  E88D00            call word 0x1d6
00000149  58                pop ax
0000014A  E8BB00            call word 0x208
0000014D  3DFF0F            cmp ax,0xfff
00000150  740F              jz 0x161
00000152  50                push ax
00000153  BA0E00            mov dx,0xe
00000156  01D0              add ax,dx
00000158  83C011            add ax,byte +0x11
0000015B  031E0A01          add bx,[0x10a]
0000015F  EBD7              jmp short 0x138
00000161  E8F300            call word 0x257
00000164  B601              mov dh,0x1
00000166  E84E00            call word 0x1b7
00000169  0F01165D01        lgdt [0x15d]
0000016E  FA                cli
0000016F  E492              in al,0x92
00000171  0C02              or al,0x2
00000173  E692              out 0x92,al
00000175  0F20C0            mov eax,cr0
00000178  6683C801          or eax,byte +0x1
0000017C  0F22C0            mov cr0,eax
0000017F  66EA600309000800  jmp dword 0x8:0x90360
00000187  0E                push cs
00000188  0000              add [bx+si],al
0000018A  0000              add [bx+si],al
0000018C  0000              add [bx+si],al
0000018E  0000              add [bx+si],al
00000190  4B                dec bx
00000191  45                inc bp
00000192  52                push dx
00000193  4E                dec si
00000194  45                inc bp
00000195  4C                dec sp
00000196  2020              and [bx+si],ah
00000198  42                inc dx
00000199  49                dec cx
0000019A  4E                dec si
0000019B  004C6F            add [si+0x6f],cl
0000019E  61                popaw
0000019F  64696E672020      imul bp,[fs:bp+0x67],word 0x2020
000001A5  52                push dx
000001A6  6561              gs popaw
000001A8  64792E            fs jns 0x1d9
000001AB  2020              and [bx+si],ah
000001AD  204E6F            and [bp+0x6f],cl
000001B0  204B45            and [bp+di+0x45],cl
000001B3  52                push dx
000001B4  4E                dec si
000001B5  45                inc bp
000001B6  4C                dec sp
000001B7  B80900            mov ax,0x9
000001BA  F6E6              mul dh
000001BC  059C02            add ax,0x29c
000001BF  89C5              mov bp,ax
000001C1  8CD8              mov ax,ds
000001C3  8EC0              mov es,ax
000001C5  B90900            mov cx,0x9
000001C8  B80113            mov ax,0x1301
000001CB  BB0700            mov bx,0x7
000001CE  B200              mov dl,0x0
000001D0  80C603            add dh,0x3
000001D3  CD10              int 0x10
000001D5  C3                ret
000001D6  55                push bp
000001D7  89E5              mov bp,sp
000001D9  6683EC02          sub esp,byte +0x2
000001DD  884EFE            mov [bp-0x2],cl
000001E0  53                push bx
000001E1  8A1E1701          mov bl,[0x117]
000001E5  F6F3              div bl
000001E7  FEC4              inc ah
000001E9  88E1              mov cl,ah
000001EB  88C6              mov dh,al
000001ED  D0E8              shr al,1
000001EF  88C5              mov ch,al
000001F1  80E601            and dh,0x1
000001F4  5B                pop bx
000001F5  8A162301          mov dl,[0x123]
000001F9  B402              mov ah,0x2
000001FB  8A46FE            mov al,[bp-0x2]
000001FE  CD13              int 0x13
00000200  72F7              jc 0x1f9
00000202  6683C402          add esp,byte +0x2
00000206  5D                pop bp
00000207  C3                ret
00000208  06                push es
00000209  53                push bx
0000020A  50                push ax
0000020B  B80080            mov ax,0x8000
0000020E  2D0001            sub ax,0x100
00000211  8EC0              mov es,ax
00000213  58                pop ax
00000214  C6068B0200        mov byte [0x28b],0x0
00000219  BB0300            mov bx,0x3
0000021C  F7E3              mul bx
0000021E  BB0200            mov bx,0x2
00000221  F7F3              div bx
00000223  83FA00            cmp dx,byte +0x0
00000226  7405              jz 0x22d
00000228  C6068B0201        mov byte [0x28b],0x1
0000022D  31D2              xor dx,dx
0000022F  8B1E0A01          mov bx,[0x10a]
00000233  F7F3              div bx
00000235  52                push dx
00000236  BB0000            mov bx,0x0
00000239  83C001            add ax,byte +0x1
0000023C  B102              mov cl,0x2
0000023E  E895FF            call word 0x1d6
00000241  5A                pop dx
00000242  01D3              add bx,dx
00000244  268B07            mov ax,[es:bx]
00000247  803E8B0201        cmp byte [0x28b],0x1
0000024C  7503              jnz 0x251
0000024E  C1E804            shr ax,0x4
00000251  25FF0F            and ax,0xfff
00000254  5B                pop bx
00000255  07                pop es
00000256  C3                ret
00000257  52                push dx
00000258  BAF203            mov dx,0x3f2
0000025B  B000              mov al,0x0
0000025D  EE                out dx,al
0000025E  5A                pop dx
0000025F  C3                ret
00000260  66B81B008EE8      mov eax,0xe88e001b
00000266  66B810008ED8      mov eax,0xd88e0010
0000026C  8EC0              mov es,ax
0000026E  8EE0              mov fs,ax
00000270  8ED0              mov ss,ax
00000272  BC1D17            mov sp,0x171d
00000275  0900              or [bx+si],ax
00000277  68C005            push word 0x5c0
0000027A  0900              or [bx+si],ax
0000027C  E8A100            call word 0x320
0000027F  0000              add [bx+si],al
00000281  83C404            add sp,byte +0x4
00000284  E81401            call word 0x39b
00000287  0000              add [bx+si],al
00000289  E8EA01            call word 0x476
0000028C  0000              add [bx+si],al
0000028E  B40F              mov ah,0xf
00000290  B050              mov al,0x50
00000292  6566A34E00        mov [gs:0x4e],eax
00000297  0000              add [bx+si],al
00000299  6631C0            xor eax,eax
0000029C  EA00040300        jmp word 0x3:0x400
000002A1  0800              or [bx+si],al
000002A3  51                push cx
000002A4  52                push dx
000002A5  57                push di
000002A6  8B3D              mov di,[di]
000002A8  01060900          add [0x9],ax
000002AC  B40F              mov ah,0xf
000002AE  88C2              mov dl,al
000002B0  C0E804            shr al,0x4
000002B3  B90200            mov cx,0x2
000002B6  0000              add [bx+si],al
000002B8  240F              and al,0xf
000002BA  3C09              cmp al,0x9
000002BC  7704              ja 0x2c2
000002BE  0430              add al,0x30
000002C0  EB04              jmp short 0x2c6
000002C2  2C0A              sub al,0xa
000002C4  0441              add al,0x41
000002C6  65668907          mov [gs:bx],eax
000002CA  83C702            add di,byte +0x2
000002CD  88D0              mov al,dl
000002CF  E2E7              loop 0x2b8
000002D1  893D              mov [di],di
000002D3  01060900          add [0x9],ax
000002D7  5F                pop di
000002D8  5A                pop dx
000002D9  59                pop cx
000002DA  C3                ret
000002DB  8B4424            mov ax,[si+0x24]
000002DE  04C1              add al,0xc1
000002E0  E818E8            call word 0xeafb
000002E3  BCFFFF            mov sp,0xffff
000002E6  FF8B4424          dec word [bp+di+0x2444]
000002EA  04C1              add al,0xc1
000002EC  E810E8            call word 0xeaff
000002EF  B0FF              mov al,0xff
000002F1  FF                db 0xff
000002F2  FF8B4424          dec word [bp+di+0x2444]
000002F6  04C1              add al,0xc1
000002F8  E808E8            call word 0xeb03
000002FB  A4                movsb
000002FC  FF                db 0xff
000002FD  FF                db 0xff
000002FE  FF8B4424          dec word [bp+di+0x2444]
00000302  04E8              add al,0xe8
00000304  9B                wait
00000305  FF                db 0xff
00000306  FF                db 0xff
00000307  FFB407B0          push word [si-0x4ff9]
0000030B  68578B            push word 0x8b57
0000030E  3D0106            cmp ax,0x601
00000311  0900              or [bx+si],ax
00000313  65668907          mov [gs:bx],eax
00000317  83C704            add di,byte +0x4
0000031A  893D              mov [di],di
0000031C  01060900          add [0x9],ax
00000320  5F                pop di
00000321  C3                ret
00000322  55                push bp
00000323  89E5              mov bp,sp
00000325  53                push bx
00000326  56                push si
00000327  57                push di
00000328  8B7508            mov si,[di+0x8]
0000032B  8B3D              mov di,[di]
0000032D  01060900          add [0x9],ax
00000331  B40F              mov ah,0xf
00000333  AC                lodsb
00000334  84C0              test al,al
00000336  7423              jz 0x35b
00000338  3C0A              cmp al,0xa
0000033A  7516              jnz 0x352
0000033C  50                push ax
0000033D  89F8              mov ax,di
0000033F  B3A0              mov bl,0xa0
00000341  F6F3              div bl
00000343  25FF00            and ax,0xff
00000346  0000              add [bx+si],al
00000348  40                inc ax
00000349  B3A0              mov bl,0xa0
0000034B  F6E3              mul bl
0000034D  89C7              mov di,ax
0000034F  58                pop ax
00000350  EBE1              jmp short 0x333
00000352  65668907          mov [gs:bx],eax
00000356  83C702            add di,byte +0x2
00000359  EBD8              jmp short 0x333
0000035B  893D              mov [di],di
0000035D  01060900          add [0x9],ax
00000361  5F                pop di
00000362  5E                pop si
00000363  5B                pop bx
00000364  5D                pop bp
00000365  C3                ret
00000366  68FB05            push word 0x5fb
00000369  0900              or [bx+si],ax
0000036B  E8B2FF            call word 0x320
0000036E  FF                db 0xff
0000036F  FF83C404          inc word [bp+di+0x4c4]
00000373  C3                ret
00000374  55                push bp
00000375  89E5              mov bp,sp
00000377  56                push si
00000378  57                push di
00000379  51                push cx
0000037A  8B7D08            mov di,[di+0x8]
0000037D  8B750C            mov si,[di+0xc]
00000380  8B4D10            mov cx,[di+0x10]
00000383  83F900            cmp cx,byte +0x0
00000386  740B              jz 0x393
00000388  3E8A064626        mov al,[ds:0x2646]
0000038D  8807              mov [bx],al
0000038F  47                inc di
00000390  49                dec cx
00000391  EBF0              jmp short 0x383
00000393  8B4508            mov ax,[di+0x8]
00000396  59                pop cx
00000397  5F                pop di
00000398  5E                pop si
00000399  89EC              mov sp,bp
0000039B  5D                pop bp
0000039C  C3                ret
0000039D  56                push si
0000039E  57                push di
0000039F  51                push cx
000003A0  BE1D06            mov si,0x61d
000003A3  0900              or [bx+si],ax
000003A5  8B0D              mov cx,[di]
000003A7  FD                std
000003A8  050900            add ax,0x9
000003AB  BA0500            mov dx,0x5
000003AE  0000              add [bx+si],al
000003B0  BF0906            mov di,0x609
000003B3  0900              or [bx+si],ax
000003B5  FF36E81F          push word [0x1fe8]
000003B9  FF                db 0xff
000003BA  FF                db 0xff
000003BB  FF58AB            call word far [bx+si-0x55]
000003BE  83C604            add si,byte +0x4
000003C1  4A                dec dx
000003C2  83FA00            cmp dx,byte +0x0
000003C5  75EE              jnz 0x3b5
000003C7  E89AFF            call word 0x364
000003CA  FF                db 0xff
000003CB  FF833D19          inc word [bp+di+0x193d]
000003CF  06                push es
000003D0  0900              or [bx+si],ax
000003D2  017518            add [di+0x18],si
000003D5  A10906            mov ax,[0x609]
000003D8  0900              or [bx+si],ax
000003DA  0305              add ax,[di]
000003DC  11060900          adc [0x9],ax
000003E0  3B05              cmp ax,[di]
000003E2  050609            add ax,0x906
000003E5  007205            add [bp+si+0x5],dh
000003E8  A30506            mov [0x605],ax
000003EB  0900              or [bx+si],ax
000003ED  E2BC              loop 0x3ab
000003EF  E872FF            call word 0x364
000003F2  FF                db 0xff
000003F3  FF68F1            jmp word far [bx+si-0xf]
000003F6  050900            add ax,0x9
000003F9  E824FF            call word 0x320
000003FC  FF                db 0xff
000003FD  FF83C404          inc word [bp+di+0x4c4]
00000401  FF35              push word [di]
00000403  050609            add ax,0x906
00000406  00E8              add al,ch
00000408  CF                iretw
00000409  FE                db 0xfe
0000040A  FF                db 0xff
0000040B  FF83C404          inc word [bp+di+0x4c4]
0000040F  59                pop cx
00000410  5F                pop di
00000411  5E                pop si
00000412  C3                ret
00000413  31D2              xor dx,dx
00000415  A10506            mov ax,[0x605]
00000418  0900              or [bx+si],ax
0000041A  BB0000            mov bx,0x0
0000041D  40                inc ax
0000041E  00F7              add bh,dh
00000420  F389C1            rep mov cx,ax
00000423  85D2              test dx,dx
00000425  7401              jz 0x428
00000427  41                inc cx
00000428  51                push cx
00000429  66B810008EC0      mov eax,0xc08e0010
0000042F  BF0000            mov di,0x0
00000432  2000              and [bx+si],al
00000434  31C0              xor ax,ax
00000436  B80710            mov ax,0x1007
00000439  2000              and [bx+si],al
0000043B  AB                stosw
0000043C  050010            add ax,0x1000
0000043F  0000              add [bx+si],al
00000441  E2F8              loop 0x43b
00000443  58                pop ax
00000444  BB0004            mov bx,0x400
00000447  0000              add [bx+si],al
00000449  F7E3              mul bx
0000044B  89C1              mov cx,ax
0000044D  BF0010            mov di,0x1000
00000450  2000              and [bx+si],al
00000452  31C0              xor ax,ax
00000454  B80700            mov ax,0x7
00000457  0000              add [bx+si],al
00000459  AB                stosw
0000045A  050010            add ax,0x1000
0000045D  0000              add [bx+si],al
0000045F  E2F8              loop 0x459
00000461  B80000            mov ax,0x0
00000464  2000              and [bx+si],al
00000466  0F22D8            mov cr3,eax
00000469  0F20C0            mov eax,cr0
0000046C  0D0000            or ax,0x0
0000046F  00800F22          add [bx+si+0x220f],al
00000473  C0EB00            shr bl,0x0
00000476  90                nop
00000477  C3                ret
00000478  31F6              xor si,si
0000047A  668B0D            mov ecx,[di]
0000047D  2C00              sub al,0x0
0000047F  0800              or [bx+si],al
00000481  0F                db 0x0f
00000482  B7C9              mov bh,0xc9
00000484  8B35              mov si,[di]
00000486  1C00              sbb al,0x0
00000488  0800              or [bx+si],al
0000048A  81C60000          add si,0x0
0000048E  0800              or [bx+si],al
00000490  8B0683F8          mov ax,[0xf883]
00000494  007417            add [si+0x17],dh
00000497  FF7610            push word [bp+0x10]
0000049A  8B4604            mov ax,[bp+0x4]
0000049D  050000            add ax,0x0
000004A0  0800              or [bx+si],al
000004A2  50                push ax
000004A3  FF7608            push word [bp+0x8]
000004A6  E8C9FE            call word 0x372
000004A9  FF                db 0xff
000004AA  FF83C40C          inc word [bp+di+0xcc4]
000004AE  83C620            add si,byte +0x20
000004B1  49                dec cx
000004B2  75DC              jnz 0x490
000004B4  C3                ret
000004B5  0000              add [bx+si],al
000004B7  0000              add [bx+si],al
000004B9  0000              add [bx+si],al
000004BB  0000              add [bx+si],al
000004BD  0000              add [bx+si],al
000004BF  004261            add [bp+si+0x61],al
000004C2  7365              jnc 0x529
000004C4  41                inc cx
000004C5  6464724C          fs jc 0x515
000004C9  204261            and [bp+si+0x61],al
000004CC  7365              jnc 0x533
000004CE  41                inc cx
000004CF  64647248          fs jc 0x51b
000004D3  204C65            and [si+0x65],cl
000004D6  6E                outsb
000004D7  677468            jz 0x542
000004DA  4C                dec sp
000004DB  6F                outsw
000004DC  7720              ja 0x4fe
000004DE  4C                dec sp
000004DF  656E              gs outsb
000004E1  677468            jz 0x54c
000004E4  48                dec ax
000004E5  6967682020        imul sp,[bx+0x68],word 0x2020
000004EA  205479            and [si+0x79],dl
000004ED  7065              jo 0x554
000004EF  0A00              or al,[bx+si]
000004F1  52                push dx
000004F2  41                inc cx
000004F3  4D                dec bp
000004F4  207369            and [bp+di+0x69],dh
000004F7  7A65              jpe 0x55e
000004F9  3A00              cmp al,[bx+si]
000004FB  0A00              or al,[bx+si]
000004FD  0000              add [bx+si],al
000004FF  0000              add [bx+si],al
00000501  C00300            rol byte [bp+di],0x0
00000504  0000              add [bx+si],al
00000506  0000              add [bx+si],al
00000508  0000              add [bx+si],al
0000050A  0000              add [bx+si],al
0000050C  0000              add [bx+si],al
0000050E  0000              add [bx+si],al
00000510  0000              add [bx+si],al
00000512  0000              add [bx+si],al
00000514  0000              add [bx+si],al
00000516  0000              add [bx+si],al
00000518  0000              add [bx+si],al
0000051A  0000              add [bx+si],al
0000051C  0000              add [bx+si],al
0000051E  0000              add [bx+si],al
00000520  0000              add [bx+si],al
00000522  0000              add [bx+si],al
00000524  0000              add [bx+si],al
00000526  0000              add [bx+si],al
00000528  0000              add [bx+si],al
0000052A  0000              add [bx+si],al
0000052C  0000              add [bx+si],al
0000052E  0000              add [bx+si],al
00000530  0000              add [bx+si],al
00000532  0000              add [bx+si],al
00000534  0000              add [bx+si],al
00000536  0000              add [bx+si],al
00000538  0000              add [bx+si],al
0000053A  0000              add [bx+si],al
0000053C  0000              add [bx+si],al
0000053E  0000              add [bx+si],al
00000540  0000              add [bx+si],al
00000542  0000              add [bx+si],al
00000544  0000              add [bx+si],al
00000546  0000              add [bx+si],al
00000548  0000              add [bx+si],al
0000054A  0000              add [bx+si],al
0000054C  0000              add [bx+si],al
0000054E  0000              add [bx+si],al
00000550  0000              add [bx+si],al
00000552  0000              add [bx+si],al
00000554  0000              add [bx+si],al
00000556  0000              add [bx+si],al
00000558  0000              add [bx+si],al
0000055A  0000              add [bx+si],al
0000055C  0000              add [bx+si],al
0000055E  0000              add [bx+si],al
00000560  0000              add [bx+si],al
00000562  0000              add [bx+si],al
00000564  0000              add [bx+si],al
00000566  0000              add [bx+si],al
00000568  0000              add [bx+si],al
0000056A  0000              add [bx+si],al
0000056C  0000              add [bx+si],al
0000056E  0000              add [bx+si],al
00000570  0000              add [bx+si],al
00000572  0000              add [bx+si],al
00000574  0000              add [bx+si],al
00000576  0000              add [bx+si],al
00000578  0000              add [bx+si],al
0000057A  0000              add [bx+si],al
0000057C  0000              add [bx+si],al
0000057E  0000              add [bx+si],al
00000580  0000              add [bx+si],al
00000582  0000              add [bx+si],al
00000584  0000              add [bx+si],al
00000586  0000              add [bx+si],al
00000588  0000              add [bx+si],al
0000058A  0000              add [bx+si],al
0000058C  0000              add [bx+si],al
0000058E  0000              add [bx+si],al
00000590  0000              add [bx+si],al
00000592  0000              add [bx+si],al
00000594  0000              add [bx+si],al
00000596  0000              add [bx+si],al
00000598  0000              add [bx+si],al
0000059A  0000              add [bx+si],al
0000059C  0000              add [bx+si],al
0000059E  0000              add [bx+si],al
000005A0  0000              add [bx+si],al
000005A2  0000              add [bx+si],al
000005A4  0000              add [bx+si],al
000005A6  0000              add [bx+si],al
000005A8  0000              add [bx+si],al
000005AA  0000              add [bx+si],al
000005AC  0000              add [bx+si],al
000005AE  0000              add [bx+si],al
000005B0  0000              add [bx+si],al
000005B2  0000              add [bx+si],al
000005B4  0000              add [bx+si],al
000005B6  0000              add [bx+si],al
000005B8  0000              add [bx+si],al
000005BA  0000              add [bx+si],al
000005BC  0000              add [bx+si],al
000005BE  0000              add [bx+si],al
000005C0  0000              add [bx+si],al
000005C2  0000              add [bx+si],al
000005C4  0000              add [bx+si],al
000005C6  0000              add [bx+si],al
000005C8  0000              add [bx+si],al
000005CA  0000              add [bx+si],al
000005CC  0000              add [bx+si],al
000005CE  0000              add [bx+si],al
000005D0  0000              add [bx+si],al
000005D2  0000              add [bx+si],al
000005D4  0000              add [bx+si],al
000005D6  0000              add [bx+si],al
000005D8  0000              add [bx+si],al
000005DA  0000              add [bx+si],al
000005DC  0000              add [bx+si],al
000005DE  0000              add [bx+si],al
000005E0  0000              add [bx+si],al
000005E2  0000              add [bx+si],al
000005E4  0000              add [bx+si],al
000005E6  0000              add [bx+si],al
000005E8  0000              add [bx+si],al
000005EA  0000              add [bx+si],al
000005EC  0000              add [bx+si],al
000005EE  0000              add [bx+si],al
000005F0  0000              add [bx+si],al
000005F2  0000              add [bx+si],al
000005F4  0000              add [bx+si],al
000005F6  0000              add [bx+si],al
000005F8  0000              add [bx+si],al
000005FA  0000              add [bx+si],al
000005FC  0000              add [bx+si],al
000005FE  0000              add [bx+si],al
00000600  0000              add [bx+si],al
00000602  0000              add [bx+si],al
00000604  0000              add [bx+si],al
00000606  0000              add [bx+si],al
00000608  0000              add [bx+si],al
0000060A  0000              add [bx+si],al
0000060C  0000              add [bx+si],al
0000060E  0000              add [bx+si],al
00000610  0000              add [bx+si],al
00000612  0000              add [bx+si],al
00000614  0000              add [bx+si],al
00000616  0000              add [bx+si],al
00000618  0000              add [bx+si],al
0000061A  0000              add [bx+si],al
0000061C  0000              add [bx+si],al
0000061E  0000              add [bx+si],al
00000620  0000              add [bx+si],al
00000622  0000              add [bx+si],al
00000624  0000              add [bx+si],al
00000626  0000              add [bx+si],al
00000628  0000              add [bx+si],al
0000062A  0000              add [bx+si],al
0000062C  0000              add [bx+si],al
0000062E  0000              add [bx+si],al
00000630  0000              add [bx+si],al
00000632  0000              add [bx+si],al
00000634  0000              add [bx+si],al
00000636  0000              add [bx+si],al
00000638  0000              add [bx+si],al
0000063A  0000              add [bx+si],al
0000063C  0000              add [bx+si],al
0000063E  0000              add [bx+si],al
00000640  0000              add [bx+si],al
00000642  0000              add [bx+si],al
00000644  0000              add [bx+si],al
00000646  0000              add [bx+si],al
00000648  0000              add [bx+si],al
0000064A  0000              add [bx+si],al
0000064C  0000              add [bx+si],al
0000064E  0000              add [bx+si],al
00000650  0000              add [bx+si],al
00000652  0000              add [bx+si],al
00000654  0000              add [bx+si],al
00000656  0000              add [bx+si],al
00000658  0000              add [bx+si],al
0000065A  0000              add [bx+si],al
0000065C  0000              add [bx+si],al
0000065E  0000              add [bx+si],al
00000660  0000              add [bx+si],al
00000662  0000              add [bx+si],al
00000664  0000              add [bx+si],al
00000666  0000              add [bx+si],al
00000668  0000              add [bx+si],al
0000066A  0000              add [bx+si],al
0000066C  0000              add [bx+si],al
0000066E  0000              add [bx+si],al
00000670  0000              add [bx+si],al
00000672  0000              add [bx+si],al
00000674  0000              add [bx+si],al
00000676  0000              add [bx+si],al
00000678  0000              add [bx+si],al
0000067A  0000              add [bx+si],al
0000067C  0000              add [bx+si],al
0000067E  0000              add [bx+si],al
00000680  0000              add [bx+si],al
00000682  0000              add [bx+si],al
00000684  0000              add [bx+si],al
00000686  0000              add [bx+si],al
00000688  0000              add [bx+si],al
0000068A  0000              add [bx+si],al
0000068C  0000              add [bx+si],al
0000068E  0000              add [bx+si],al
00000690  0000              add [bx+si],al
00000692  0000              add [bx+si],al
00000694  0000              add [bx+si],al
00000696  0000              add [bx+si],al
00000698  0000              add [bx+si],al
0000069A  0000              add [bx+si],al
0000069C  0000              add [bx+si],al
0000069E  0000              add [bx+si],al
000006A0  0000              add [bx+si],al
000006A2  0000              add [bx+si],al
000006A4  0000              add [bx+si],al
000006A6  0000              add [bx+si],al
000006A8  0000              add [bx+si],al
000006AA  0000              add [bx+si],al
000006AC  0000              add [bx+si],al
000006AE  0000              add [bx+si],al
000006B0  0000              add [bx+si],al
000006B2  0000              add [bx+si],al
000006B4  0000              add [bx+si],al
000006B6  0000              add [bx+si],al
000006B8  0000              add [bx+si],al
000006BA  0000              add [bx+si],al
000006BC  0000              add [bx+si],al
000006BE  0000              add [bx+si],al
000006C0  0000              add [bx+si],al
000006C2  0000              add [bx+si],al
000006C4  0000              add [bx+si],al
000006C6  0000              add [bx+si],al
000006C8  0000              add [bx+si],al
000006CA  0000              add [bx+si],al
000006CC  0000              add [bx+si],al
000006CE  0000              add [bx+si],al
000006D0  0000              add [bx+si],al
000006D2  0000              add [bx+si],al
000006D4  0000              add [bx+si],al
000006D6  0000              add [bx+si],al
000006D8  0000              add [bx+si],al
000006DA  0000              add [bx+si],al
000006DC  0000              add [bx+si],al
000006DE  0000              add [bx+si],al
000006E0  0000              add [bx+si],al
000006E2  0000              add [bx+si],al
000006E4  0000              add [bx+si],al
000006E6  0000              add [bx+si],al
000006E8  0000              add [bx+si],al
000006EA  0000              add [bx+si],al
000006EC  0000              add [bx+si],al
000006EE  0000              add [bx+si],al
000006F0  0000              add [bx+si],al
000006F2  0000              add [bx+si],al
000006F4  0000              add [bx+si],al
000006F6  0000              add [bx+si],al
000006F8  0000              add [bx+si],al
000006FA  0000              add [bx+si],al
000006FC  0000              add [bx+si],al
000006FE  0000              add [bx+si],al
00000700  0000              add [bx+si],al
00000702  0000              add [bx+si],al
00000704  0000              add [bx+si],al
00000706  0000              add [bx+si],al
00000708  0000              add [bx+si],al
0000070A  0000              add [bx+si],al
0000070C  0000              add [bx+si],al
0000070E  0000              add [bx+si],al
00000710  0000              add [bx+si],al
00000712  0000              add [bx+si],al
00000714  0000              add [bx+si],al
00000716  0000              add [bx+si],al
00000718  0000              add [bx+si],al
0000071A  0000              add [bx+si],al
0000071C  0000              add [bx+si],al
0000071E  0000              add [bx+si],al
00000720  0000              add [bx+si],al
00000722  0000              add [bx+si],al
00000724  0000              add [bx+si],al
00000726  0000              add [bx+si],al
00000728  0000              add [bx+si],al
0000072A  0000              add [bx+si],al
0000072C  0000              add [bx+si],al
0000072E  0000              add [bx+si],al
00000730  0000              add [bx+si],al
00000732  0000              add [bx+si],al
00000734  0000              add [bx+si],al
00000736  0000              add [bx+si],al
00000738  0000              add [bx+si],al
0000073A  0000              add [bx+si],al
0000073C  0000              add [bx+si],al
0000073E  0000              add [bx+si],al
00000740  0000              add [bx+si],al
00000742  0000              add [bx+si],al
00000744  0000              add [bx+si],al
00000746  0000              add [bx+si],al
00000748  0000              add [bx+si],al
0000074A  0000              add [bx+si],al
0000074C  0000              add [bx+si],al
0000074E  0000              add [bx+si],al
00000750  0000              add [bx+si],al
00000752  0000              add [bx+si],al
00000754  0000              add [bx+si],al
00000756  0000              add [bx+si],al
00000758  0000              add [bx+si],al
0000075A  0000              add [bx+si],al
0000075C  0000              add [bx+si],al
0000075E  0000              add [bx+si],al
00000760  0000              add [bx+si],al
00000762  0000              add [bx+si],al
00000764  0000              add [bx+si],al
00000766  0000              add [bx+si],al
00000768  0000              add [bx+si],al
0000076A  0000              add [bx+si],al
0000076C  0000              add [bx+si],al
0000076E  0000              add [bx+si],al
00000770  0000              add [bx+si],al
00000772  0000              add [bx+si],al
00000774  0000              add [bx+si],al
00000776  0000              add [bx+si],al
00000778  0000              add [bx+si],al
0000077A  0000              add [bx+si],al
0000077C  0000              add [bx+si],al
0000077E  0000              add [bx+si],al
00000780  0000              add [bx+si],al
00000782  0000              add [bx+si],al
00000784  0000              add [bx+si],al
00000786  0000              add [bx+si],al
00000788  0000              add [bx+si],al
0000078A  0000              add [bx+si],al
0000078C  0000              add [bx+si],al
0000078E  0000              add [bx+si],al
00000790  0000              add [bx+si],al
00000792  0000              add [bx+si],al
00000794  0000              add [bx+si],al
00000796  0000              add [bx+si],al
00000798  0000              add [bx+si],al
0000079A  0000              add [bx+si],al
0000079C  0000              add [bx+si],al
0000079E  0000              add [bx+si],al
000007A0  0000              add [bx+si],al
000007A2  0000              add [bx+si],al
000007A4  0000              add [bx+si],al
000007A6  0000              add [bx+si],al
000007A8  0000              add [bx+si],al
000007AA  0000              add [bx+si],al
000007AC  0000              add [bx+si],al
000007AE  0000              add [bx+si],al
000007B0  0000              add [bx+si],al
000007B2  0000              add [bx+si],al
000007B4  0000              add [bx+si],al
000007B6  0000              add [bx+si],al
000007B8  0000              add [bx+si],al
000007BA  0000              add [bx+si],al
000007BC  0000              add [bx+si],al
000007BE  0000              add [bx+si],al
000007C0  0000              add [bx+si],al
000007C2  0000              add [bx+si],al
000007C4  0000              add [bx+si],al
000007C6  0000              add [bx+si],al
000007C8  0000              add [bx+si],al
000007CA  0000              add [bx+si],al
000007CC  0000              add [bx+si],al
000007CE  0000              add [bx+si],al
000007D0  0000              add [bx+si],al
000007D2  0000              add [bx+si],al
000007D4  0000              add [bx+si],al
000007D6  0000              add [bx+si],al
000007D8  0000              add [bx+si],al
000007DA  0000              add [bx+si],al
000007DC  0000              add [bx+si],al
000007DE  0000              add [bx+si],al
000007E0  0000              add [bx+si],al
000007E2  0000              add [bx+si],al
000007E4  0000              add [bx+si],al
000007E6  0000              add [bx+si],al
000007E8  0000              add [bx+si],al
000007EA  0000              add [bx+si],al
000007EC  0000              add [bx+si],al
000007EE  0000              add [bx+si],al
000007F0  0000              add [bx+si],al
000007F2  0000              add [bx+si],al
000007F4  0000              add [bx+si],al
000007F6  0000              add [bx+si],al
000007F8  0000              add [bx+si],al
000007FA  0000              add [bx+si],al
000007FC  0000              add [bx+si],al
000007FE  0000              add [bx+si],al
00000800  0000              add [bx+si],al
00000802  0000              add [bx+si],al
00000804  0000              add [bx+si],al
00000806  0000              add [bx+si],al
00000808  0000              add [bx+si],al
0000080A  0000              add [bx+si],al
0000080C  0000              add [bx+si],al
0000080E  0000              add [bx+si],al
00000810  0000              add [bx+si],al
00000812  0000              add [bx+si],al
00000814  0000              add [bx+si],al
00000816  0000              add [bx+si],al
00000818  0000              add [bx+si],al
0000081A  0000              add [bx+si],al
0000081C  0000              add [bx+si],al
0000081E  0000              add [bx+si],al
00000820  0000              add [bx+si],al
00000822  0000              add [bx+si],al
00000824  0000              add [bx+si],al
00000826  0000              add [bx+si],al
00000828  0000              add [bx+si],al
0000082A  0000              add [bx+si],al
0000082C  0000              add [bx+si],al
0000082E  0000              add [bx+si],al
00000830  0000              add [bx+si],al
00000832  0000              add [bx+si],al
00000834  0000              add [bx+si],al
00000836  0000              add [bx+si],al
00000838  0000              add [bx+si],al
0000083A  0000              add [bx+si],al
0000083C  0000              add [bx+si],al
0000083E  0000              add [bx+si],al
00000840  0000              add [bx+si],al
00000842  0000              add [bx+si],al
00000844  0000              add [bx+si],al
00000846  0000              add [bx+si],al
00000848  0000              add [bx+si],al
0000084A  0000              add [bx+si],al
0000084C  0000              add [bx+si],al
0000084E  0000              add [bx+si],al
00000850  0000              add [bx+si],al
00000852  0000              add [bx+si],al
00000854  0000              add [bx+si],al
00000856  0000              add [bx+si],al
00000858  0000              add [bx+si],al
0000085A  0000              add [bx+si],al
0000085C  0000              add [bx+si],al
0000085E  0000              add [bx+si],al
00000860  0000              add [bx+si],al
00000862  0000              add [bx+si],al
00000864  0000              add [bx+si],al
00000866  0000              add [bx+si],al
00000868  0000              add [bx+si],al
0000086A  0000              add [bx+si],al
0000086C  0000              add [bx+si],al
0000086E  0000              add [bx+si],al
00000870  0000              add [bx+si],al
00000872  0000              add [bx+si],al
00000874  0000              add [bx+si],al
00000876  0000              add [bx+si],al
00000878  0000              add [bx+si],al
0000087A  0000              add [bx+si],al
0000087C  0000              add [bx+si],al
0000087E  0000              add [bx+si],al
00000880  0000              add [bx+si],al
00000882  0000              add [bx+si],al
00000884  0000              add [bx+si],al
00000886  0000              add [bx+si],al
00000888  0000              add [bx+si],al
0000088A  0000              add [bx+si],al
0000088C  0000              add [bx+si],al
0000088E  0000              add [bx+si],al
00000890  0000              add [bx+si],al
00000892  0000              add [bx+si],al
00000894  0000              add [bx+si],al
00000896  0000              add [bx+si],al
00000898  0000              add [bx+si],al
0000089A  0000              add [bx+si],al
0000089C  0000              add [bx+si],al
0000089E  0000              add [bx+si],al
000008A0  0000              add [bx+si],al
000008A2  0000              add [bx+si],al
000008A4  0000              add [bx+si],al
000008A6  0000              add [bx+si],al
000008A8  0000              add [bx+si],al
000008AA  0000              add [bx+si],al
000008AC  0000              add [bx+si],al
000008AE  0000              add [bx+si],al
000008B0  0000              add [bx+si],al
000008B2  0000              add [bx+si],al
000008B4  0000              add [bx+si],al
000008B6  0000              add [bx+si],al
000008B8  0000              add [bx+si],al
000008BA  0000              add [bx+si],al
000008BC  0000              add [bx+si],al
000008BE  0000              add [bx+si],al
000008C0  0000              add [bx+si],al
000008C2  0000              add [bx+si],al
000008C4  0000              add [bx+si],al
000008C6  0000              add [bx+si],al
000008C8  0000              add [bx+si],al
000008CA  0000              add [bx+si],al
000008CC  0000              add [bx+si],al
000008CE  0000              add [bx+si],al
000008D0  0000              add [bx+si],al
000008D2  0000              add [bx+si],al
000008D4  0000              add [bx+si],al
000008D6  0000              add [bx+si],al
000008D8  0000              add [bx+si],al
000008DA  0000              add [bx+si],al
000008DC  0000              add [bx+si],al
000008DE  0000              add [bx+si],al
000008E0  0000              add [bx+si],al
000008E2  0000              add [bx+si],al
000008E4  0000              add [bx+si],al
000008E6  0000              add [bx+si],al
000008E8  0000              add [bx+si],al
000008EA  0000              add [bx+si],al
000008EC  0000              add [bx+si],al
000008EE  0000              add [bx+si],al
000008F0  0000              add [bx+si],al
000008F2  0000              add [bx+si],al
000008F4  0000              add [bx+si],al
000008F6  0000              add [bx+si],al
000008F8  0000              add [bx+si],al
000008FA  0000              add [bx+si],al
000008FC  0000              add [bx+si],al
000008FE  0000              add [bx+si],al
00000900  0000              add [bx+si],al
00000902  0000              add [bx+si],al
00000904  0000              add [bx+si],al
00000906  0000              add [bx+si],al
00000908  0000              add [bx+si],al
0000090A  0000              add [bx+si],al
0000090C  0000              add [bx+si],al
0000090E  0000              add [bx+si],al
00000910  0000              add [bx+si],al
00000912  0000              add [bx+si],al
00000914  0000              add [bx+si],al
00000916  0000              add [bx+si],al
00000918  0000              add [bx+si],al
0000091A  0000              add [bx+si],al
0000091C  0000              add [bx+si],al
0000091E  0000              add [bx+si],al
00000920  0000              add [bx+si],al
00000922  0000              add [bx+si],al
00000924  0000              add [bx+si],al
00000926  0000              add [bx+si],al
00000928  0000              add [bx+si],al
0000092A  0000              add [bx+si],al
0000092C  0000              add [bx+si],al
0000092E  0000              add [bx+si],al
00000930  0000              add [bx+si],al
00000932  0000              add [bx+si],al
00000934  0000              add [bx+si],al
00000936  0000              add [bx+si],al
00000938  0000              add [bx+si],al
0000093A  0000              add [bx+si],al
0000093C  0000              add [bx+si],al
0000093E  0000              add [bx+si],al
00000940  0000              add [bx+si],al
00000942  0000              add [bx+si],al
00000944  0000              add [bx+si],al
00000946  0000              add [bx+si],al
00000948  0000              add [bx+si],al
0000094A  0000              add [bx+si],al
0000094C  0000              add [bx+si],al
0000094E  0000              add [bx+si],al
00000950  0000              add [bx+si],al
00000952  0000              add [bx+si],al
00000954  0000              add [bx+si],al
00000956  0000              add [bx+si],al
00000958  0000              add [bx+si],al
0000095A  0000              add [bx+si],al
0000095C  0000              add [bx+si],al
0000095E  0000              add [bx+si],al
00000960  0000              add [bx+si],al
00000962  0000              add [bx+si],al
00000964  0000              add [bx+si],al
00000966  0000              add [bx+si],al
00000968  0000              add [bx+si],al
0000096A  0000              add [bx+si],al
0000096C  0000              add [bx+si],al
0000096E  0000              add [bx+si],al
00000970  0000              add [bx+si],al
00000972  0000              add [bx+si],al
00000974  0000              add [bx+si],al
00000976  0000              add [bx+si],al
00000978  0000              add [bx+si],al
0000097A  0000              add [bx+si],al
0000097C  0000              add [bx+si],al
0000097E  0000              add [bx+si],al
00000980  0000              add [bx+si],al
00000982  0000              add [bx+si],al
00000984  0000              add [bx+si],al
00000986  0000              add [bx+si],al
00000988  0000              add [bx+si],al
0000098A  0000              add [bx+si],al
0000098C  0000              add [bx+si],al
0000098E  0000              add [bx+si],al
00000990  0000              add [bx+si],al
00000992  0000              add [bx+si],al
00000994  0000              add [bx+si],al
00000996  0000              add [bx+si],al
00000998  0000              add [bx+si],al
0000099A  0000              add [bx+si],al
0000099C  0000              add [bx+si],al
0000099E  0000              add [bx+si],al
000009A0  0000              add [bx+si],al
000009A2  0000              add [bx+si],al
000009A4  0000              add [bx+si],al
000009A6  0000              add [bx+si],al
000009A8  0000              add [bx+si],al
000009AA  0000              add [bx+si],al
000009AC  0000              add [bx+si],al
000009AE  0000              add [bx+si],al
000009B0  0000              add [bx+si],al
000009B2  0000              add [bx+si],al
000009B4  0000              add [bx+si],al
000009B6  0000              add [bx+si],al
000009B8  0000              add [bx+si],al
000009BA  0000              add [bx+si],al
000009BC  0000              add [bx+si],al
000009BE  0000              add [bx+si],al
000009C0  0000              add [bx+si],al
000009C2  0000              add [bx+si],al
000009C4  0000              add [bx+si],al
000009C6  0000              add [bx+si],al
000009C8  0000              add [bx+si],al
000009CA  0000              add [bx+si],al
000009CC  0000              add [bx+si],al
000009CE  0000              add [bx+si],al
000009D0  0000              add [bx+si],al
000009D2  0000              add [bx+si],al
000009D4  0000              add [bx+si],al
000009D6  0000              add [bx+si],al
000009D8  0000              add [bx+si],al
000009DA  0000              add [bx+si],al
000009DC  0000              add [bx+si],al
000009DE  0000              add [bx+si],al
000009E0  0000              add [bx+si],al
000009E2  0000              add [bx+si],al
000009E4  0000              add [bx+si],al
000009E6  0000              add [bx+si],al
000009E8  0000              add [bx+si],al
000009EA  0000              add [bx+si],al
000009EC  0000              add [bx+si],al
000009EE  0000              add [bx+si],al
000009F0  0000              add [bx+si],al
000009F2  0000              add [bx+si],al
000009F4  0000              add [bx+si],al
000009F6  0000              add [bx+si],al
000009F8  0000              add [bx+si],al
000009FA  0000              add [bx+si],al
000009FC  0000              add [bx+si],al
000009FE  0000              add [bx+si],al
00000A00  0000              add [bx+si],al
00000A02  0000              add [bx+si],al
00000A04  0000              add [bx+si],al
00000A06  0000              add [bx+si],al
00000A08  0000              add [bx+si],al
00000A0A  0000              add [bx+si],al
00000A0C  0000              add [bx+si],al
00000A0E  0000              add [bx+si],al
00000A10  0000              add [bx+si],al
00000A12  0000              add [bx+si],al
00000A14  0000              add [bx+si],al
00000A16  0000              add [bx+si],al
00000A18  0000              add [bx+si],al
00000A1A  0000              add [bx+si],al
00000A1C  0000              add [bx+si],al
00000A1E  0000              add [bx+si],al
00000A20  0000              add [bx+si],al
00000A22  0000              add [bx+si],al
00000A24  0000              add [bx+si],al
00000A26  0000              add [bx+si],al
00000A28  0000              add [bx+si],al
00000A2A  0000              add [bx+si],al
00000A2C  0000              add [bx+si],al
00000A2E  0000              add [bx+si],al
00000A30  0000              add [bx+si],al
00000A32  0000              add [bx+si],al
00000A34  0000              add [bx+si],al
00000A36  0000              add [bx+si],al
00000A38  0000              add [bx+si],al
00000A3A  0000              add [bx+si],al
00000A3C  0000              add [bx+si],al
00000A3E  0000              add [bx+si],al
00000A40  0000              add [bx+si],al
00000A42  0000              add [bx+si],al
00000A44  0000              add [bx+si],al
00000A46  0000              add [bx+si],al
00000A48  0000              add [bx+si],al
00000A4A  0000              add [bx+si],al
00000A4C  0000              add [bx+si],al
00000A4E  0000              add [bx+si],al
00000A50  0000              add [bx+si],al
00000A52  0000              add [bx+si],al
00000A54  0000              add [bx+si],al
00000A56  0000              add [bx+si],al
00000A58  0000              add [bx+si],al
00000A5A  0000              add [bx+si],al
00000A5C  0000              add [bx+si],al
00000A5E  0000              add [bx+si],al
00000A60  0000              add [bx+si],al
00000A62  0000              add [bx+si],al
00000A64  0000              add [bx+si],al
00000A66  0000              add [bx+si],al
00000A68  0000              add [bx+si],al
00000A6A  0000              add [bx+si],al
00000A6C  0000              add [bx+si],al
00000A6E  0000              add [bx+si],al
00000A70  0000              add [bx+si],al
00000A72  0000              add [bx+si],al
00000A74  0000              add [bx+si],al
00000A76  0000              add [bx+si],al
00000A78  0000              add [bx+si],al
00000A7A  0000              add [bx+si],al
00000A7C  0000              add [bx+si],al
00000A7E  0000              add [bx+si],al
00000A80  0000              add [bx+si],al
00000A82  0000              add [bx+si],al
00000A84  0000              add [bx+si],al
00000A86  0000              add [bx+si],al
00000A88  0000              add [bx+si],al
00000A8A  0000              add [bx+si],al
00000A8C  0000              add [bx+si],al
00000A8E  0000              add [bx+si],al
00000A90  0000              add [bx+si],al
00000A92  0000              add [bx+si],al
00000A94  0000              add [bx+si],al
00000A96  0000              add [bx+si],al
00000A98  0000              add [bx+si],al
00000A9A  0000              add [bx+si],al
00000A9C  0000              add [bx+si],al
00000A9E  0000              add [bx+si],al
00000AA0  0000              add [bx+si],al
00000AA2  0000              add [bx+si],al
00000AA4  0000              add [bx+si],al
00000AA6  0000              add [bx+si],al
00000AA8  0000              add [bx+si],al
00000AAA  0000              add [bx+si],al
00000AAC  0000              add [bx+si],al
00000AAE  0000              add [bx+si],al
00000AB0  0000              add [bx+si],al
00000AB2  0000              add [bx+si],al
00000AB4  0000              add [bx+si],al
00000AB6  0000              add [bx+si],al
00000AB8  0000              add [bx+si],al
00000ABA  0000              add [bx+si],al
00000ABC  0000              add [bx+si],al
00000ABE  0000              add [bx+si],al
00000AC0  0000              add [bx+si],al
00000AC2  0000              add [bx+si],al
00000AC4  0000              add [bx+si],al
00000AC6  0000              add [bx+si],al
00000AC8  0000              add [bx+si],al
00000ACA  0000              add [bx+si],al
00000ACC  0000              add [bx+si],al
00000ACE  0000              add [bx+si],al
00000AD0  0000              add [bx+si],al
00000AD2  0000              add [bx+si],al
00000AD4  0000              add [bx+si],al
00000AD6  0000              add [bx+si],al
00000AD8  0000              add [bx+si],al
00000ADA  0000              add [bx+si],al
00000ADC  0000              add [bx+si],al
00000ADE  0000              add [bx+si],al
00000AE0  0000              add [bx+si],al
00000AE2  0000              add [bx+si],al
00000AE4  0000              add [bx+si],al
00000AE6  0000              add [bx+si],al
00000AE8  0000              add [bx+si],al
00000AEA  0000              add [bx+si],al
00000AEC  0000              add [bx+si],al
00000AEE  0000              add [bx+si],al
00000AF0  0000              add [bx+si],al
00000AF2  0000              add [bx+si],al
00000AF4  0000              add [bx+si],al
00000AF6  0000              add [bx+si],al
00000AF8  0000              add [bx+si],al
00000AFA  0000              add [bx+si],al
00000AFC  0000              add [bx+si],al
00000AFE  0000              add [bx+si],al
00000B00  0000              add [bx+si],al
00000B02  0000              add [bx+si],al
00000B04  0000              add [bx+si],al
00000B06  0000              add [bx+si],al
00000B08  0000              add [bx+si],al
00000B0A  0000              add [bx+si],al
00000B0C  0000              add [bx+si],al
00000B0E  0000              add [bx+si],al
00000B10  0000              add [bx+si],al
00000B12  0000              add [bx+si],al
00000B14  0000              add [bx+si],al
00000B16  0000              add [bx+si],al
00000B18  0000              add [bx+si],al
00000B1A  0000              add [bx+si],al
00000B1C  0000              add [bx+si],al
00000B1E  0000              add [bx+si],al
00000B20  0000              add [bx+si],al
00000B22  0000              add [bx+si],al
00000B24  0000              add [bx+si],al
00000B26  0000              add [bx+si],al
00000B28  0000              add [bx+si],al
00000B2A  0000              add [bx+si],al
00000B2C  0000              add [bx+si],al
00000B2E  0000              add [bx+si],al
00000B30  0000              add [bx+si],al
00000B32  0000              add [bx+si],al
00000B34  0000              add [bx+si],al
00000B36  0000              add [bx+si],al
00000B38  0000              add [bx+si],al
00000B3A  0000              add [bx+si],al
00000B3C  0000              add [bx+si],al
00000B3E  0000              add [bx+si],al
00000B40  0000              add [bx+si],al
00000B42  0000              add [bx+si],al
00000B44  0000              add [bx+si],al
00000B46  0000              add [bx+si],al
00000B48  0000              add [bx+si],al
00000B4A  0000              add [bx+si],al
00000B4C  0000              add [bx+si],al
00000B4E  0000              add [bx+si],al
00000B50  0000              add [bx+si],al
00000B52  0000              add [bx+si],al
00000B54  0000              add [bx+si],al
00000B56  0000              add [bx+si],al
00000B58  0000              add [bx+si],al
00000B5A  0000              add [bx+si],al
00000B5C  0000              add [bx+si],al
00000B5E  0000              add [bx+si],al
00000B60  0000              add [bx+si],al
00000B62  0000              add [bx+si],al
00000B64  0000              add [bx+si],al
00000B66  0000              add [bx+si],al
00000B68  0000              add [bx+si],al
00000B6A  0000              add [bx+si],al
00000B6C  0000              add [bx+si],al
00000B6E  0000              add [bx+si],al
00000B70  0000              add [bx+si],al
00000B72  0000              add [bx+si],al
00000B74  0000              add [bx+si],al
00000B76  0000              add [bx+si],al
00000B78  0000              add [bx+si],al
00000B7A  0000              add [bx+si],al
00000B7C  0000              add [bx+si],al
00000B7E  0000              add [bx+si],al
00000B80  0000              add [bx+si],al
00000B82  0000              add [bx+si],al
00000B84  0000              add [bx+si],al
00000B86  0000              add [bx+si],al
00000B88  0000              add [bx+si],al
00000B8A  0000              add [bx+si],al
00000B8C  0000              add [bx+si],al
00000B8E  0000              add [bx+si],al
00000B90  0000              add [bx+si],al
00000B92  0000              add [bx+si],al
00000B94  0000              add [bx+si],al
00000B96  0000              add [bx+si],al
00000B98  0000              add [bx+si],al
00000B9A  0000              add [bx+si],al
00000B9C  0000              add [bx+si],al
00000B9E  0000              add [bx+si],al
00000BA0  0000              add [bx+si],al
00000BA2  0000              add [bx+si],al
00000BA4  0000              add [bx+si],al
00000BA6  0000              add [bx+si],al
00000BA8  0000              add [bx+si],al
00000BAA  0000              add [bx+si],al
00000BAC  0000              add [bx+si],al
00000BAE  0000              add [bx+si],al
00000BB0  0000              add [bx+si],al
00000BB2  0000              add [bx+si],al
00000BB4  0000              add [bx+si],al
00000BB6  0000              add [bx+si],al
00000BB8  0000              add [bx+si],al
00000BBA  0000              add [bx+si],al
00000BBC  0000              add [bx+si],al
00000BBE  0000              add [bx+si],al
00000BC0  0000              add [bx+si],al
00000BC2  0000              add [bx+si],al
00000BC4  0000              add [bx+si],al
00000BC6  0000              add [bx+si],al
00000BC8  0000              add [bx+si],al
00000BCA  0000              add [bx+si],al
00000BCC  0000              add [bx+si],al
00000BCE  0000              add [bx+si],al
00000BD0  0000              add [bx+si],al
00000BD2  0000              add [bx+si],al
00000BD4  0000              add [bx+si],al
00000BD6  0000              add [bx+si],al
00000BD8  0000              add [bx+si],al
00000BDA  0000              add [bx+si],al
00000BDC  0000              add [bx+si],al
00000BDE  0000              add [bx+si],al
00000BE0  0000              add [bx+si],al
00000BE2  0000              add [bx+si],al
00000BE4  0000              add [bx+si],al
00000BE6  0000              add [bx+si],al
00000BE8  0000              add [bx+si],al
00000BEA  0000              add [bx+si],al
00000BEC  0000              add [bx+si],al
00000BEE  0000              add [bx+si],al
00000BF0  0000              add [bx+si],al
00000BF2  0000              add [bx+si],al
00000BF4  0000              add [bx+si],al
00000BF6  0000              add [bx+si],al
00000BF8  0000              add [bx+si],al
00000BFA  0000              add [bx+si],al
00000BFC  0000              add [bx+si],al
00000BFE  0000              add [bx+si],al
00000C00  0000              add [bx+si],al
00000C02  0000              add [bx+si],al
00000C04  0000              add [bx+si],al
00000C06  0000              add [bx+si],al
00000C08  0000              add [bx+si],al
00000C0A  0000              add [bx+si],al
00000C0C  0000              add [bx+si],al
00000C0E  0000              add [bx+si],al
00000C10  0000              add [bx+si],al
00000C12  0000              add [bx+si],al
00000C14  0000              add [bx+si],al
00000C16  0000              add [bx+si],al
00000C18  0000              add [bx+si],al
00000C1A  0000              add [bx+si],al
00000C1C  0000              add [bx+si],al
00000C1E  0000              add [bx+si],al
00000C20  0000              add [bx+si],al
00000C22  0000              add [bx+si],al
00000C24  0000              add [bx+si],al
00000C26  0000              add [bx+si],al
00000C28  0000              add [bx+si],al
00000C2A  0000              add [bx+si],al
00000C2C  0000              add [bx+si],al
00000C2E  0000              add [bx+si],al
00000C30  0000              add [bx+si],al
00000C32  0000              add [bx+si],al
00000C34  0000              add [bx+si],al
00000C36  0000              add [bx+si],al
00000C38  0000              add [bx+si],al
00000C3A  0000              add [bx+si],al
00000C3C  0000              add [bx+si],al
00000C3E  0000              add [bx+si],al
00000C40  0000              add [bx+si],al
00000C42  0000              add [bx+si],al
00000C44  0000              add [bx+si],al
00000C46  0000              add [bx+si],al
00000C48  0000              add [bx+si],al
00000C4A  0000              add [bx+si],al
00000C4C  0000              add [bx+si],al
00000C4E  0000              add [bx+si],al
00000C50  0000              add [bx+si],al
00000C52  0000              add [bx+si],al
00000C54  0000              add [bx+si],al
00000C56  0000              add [bx+si],al
00000C58  0000              add [bx+si],al
00000C5A  0000              add [bx+si],al
00000C5C  0000              add [bx+si],al
00000C5E  0000              add [bx+si],al
00000C60  0000              add [bx+si],al
00000C62  0000              add [bx+si],al
00000C64  0000              add [bx+si],al
00000C66  0000              add [bx+si],al
00000C68  0000              add [bx+si],al
00000C6A  0000              add [bx+si],al
00000C6C  0000              add [bx+si],al
00000C6E  0000              add [bx+si],al
00000C70  0000              add [bx+si],al
00000C72  0000              add [bx+si],al
00000C74  0000              add [bx+si],al
00000C76  0000              add [bx+si],al
00000C78  0000              add [bx+si],al
00000C7A  0000              add [bx+si],al
00000C7C  0000              add [bx+si],al
00000C7E  0000              add [bx+si],al
00000C80  0000              add [bx+si],al
00000C82  0000              add [bx+si],al
00000C84  0000              add [bx+si],al
00000C86  0000              add [bx+si],al
00000C88  0000              add [bx+si],al
00000C8A  0000              add [bx+si],al
00000C8C  0000              add [bx+si],al
00000C8E  0000              add [bx+si],al
00000C90  0000              add [bx+si],al
00000C92  0000              add [bx+si],al
00000C94  0000              add [bx+si],al
00000C96  0000              add [bx+si],al
00000C98  0000              add [bx+si],al
00000C9A  0000              add [bx+si],al
00000C9C  0000              add [bx+si],al
00000C9E  0000              add [bx+si],al
00000CA0  0000              add [bx+si],al
00000CA2  0000              add [bx+si],al
00000CA4  0000              add [bx+si],al
00000CA6  0000              add [bx+si],al
00000CA8  0000              add [bx+si],al
00000CAA  0000              add [bx+si],al
00000CAC  0000              add [bx+si],al
00000CAE  0000              add [bx+si],al
00000CB0  0000              add [bx+si],al
00000CB2  0000              add [bx+si],al
00000CB4  0000              add [bx+si],al
00000CB6  0000              add [bx+si],al
00000CB8  0000              add [bx+si],al
00000CBA  0000              add [bx+si],al
00000CBC  0000              add [bx+si],al
00000CBE  0000              add [bx+si],al
00000CC0  0000              add [bx+si],al
00000CC2  0000              add [bx+si],al
00000CC4  0000              add [bx+si],al
00000CC6  0000              add [bx+si],al
00000CC8  0000              add [bx+si],al
00000CCA  0000              add [bx+si],al
00000CCC  0000              add [bx+si],al
00000CCE  0000              add [bx+si],al
00000CD0  0000              add [bx+si],al
00000CD2  0000              add [bx+si],al
00000CD4  0000              add [bx+si],al
00000CD6  0000              add [bx+si],al
00000CD8  0000              add [bx+si],al
00000CDA  0000              add [bx+si],al
00000CDC  0000              add [bx+si],al
00000CDE  0000              add [bx+si],al
00000CE0  0000              add [bx+si],al
00000CE2  0000              add [bx+si],al
00000CE4  0000              add [bx+si],al
00000CE6  0000              add [bx+si],al
00000CE8  0000              add [bx+si],al
00000CEA  0000              add [bx+si],al
00000CEC  0000              add [bx+si],al
00000CEE  0000              add [bx+si],al
00000CF0  0000              add [bx+si],al
00000CF2  0000              add [bx+si],al
00000CF4  0000              add [bx+si],al
00000CF6  0000              add [bx+si],al
00000CF8  0000              add [bx+si],al
00000CFA  0000              add [bx+si],al
00000CFC  0000              add [bx+si],al
00000CFE  0000              add [bx+si],al
00000D00  0000              add [bx+si],al
00000D02  0000              add [bx+si],al
00000D04  0000              add [bx+si],al
00000D06  0000              add [bx+si],al
00000D08  0000              add [bx+si],al
00000D0A  0000              add [bx+si],al
00000D0C  0000              add [bx+si],al
00000D0E  0000              add [bx+si],al
00000D10  0000              add [bx+si],al
00000D12  0000              add [bx+si],al
00000D14  0000              add [bx+si],al
00000D16  0000              add [bx+si],al
00000D18  0000              add [bx+si],al
00000D1A  0000              add [bx+si],al
00000D1C  0000              add [bx+si],al
00000D1E  0000              add [bx+si],al
00000D20  0000              add [bx+si],al
00000D22  0000              add [bx+si],al
00000D24  0000              add [bx+si],al
00000D26  0000              add [bx+si],al
00000D28  0000              add [bx+si],al
00000D2A  0000              add [bx+si],al
00000D2C  0000              add [bx+si],al
00000D2E  0000              add [bx+si],al
00000D30  0000              add [bx+si],al
00000D32  0000              add [bx+si],al
00000D34  0000              add [bx+si],al
00000D36  0000              add [bx+si],al
00000D38  0000              add [bx+si],al
00000D3A  0000              add [bx+si],al
00000D3C  0000              add [bx+si],al
00000D3E  0000              add [bx+si],al
00000D40  0000              add [bx+si],al
00000D42  0000              add [bx+si],al
00000D44  0000              add [bx+si],al
00000D46  0000              add [bx+si],al
00000D48  0000              add [bx+si],al
00000D4A  0000              add [bx+si],al
00000D4C  0000              add [bx+si],al
00000D4E  0000              add [bx+si],al
00000D50  0000              add [bx+si],al
00000D52  0000              add [bx+si],al
00000D54  0000              add [bx+si],al
00000D56  0000              add [bx+si],al
00000D58  0000              add [bx+si],al
00000D5A  0000              add [bx+si],al
00000D5C  0000              add [bx+si],al
00000D5E  0000              add [bx+si],al
00000D60  0000              add [bx+si],al
00000D62  0000              add [bx+si],al
00000D64  0000              add [bx+si],al
00000D66  0000              add [bx+si],al
00000D68  0000              add [bx+si],al
00000D6A  0000              add [bx+si],al
00000D6C  0000              add [bx+si],al
00000D6E  0000              add [bx+si],al
00000D70  0000              add [bx+si],al
00000D72  0000              add [bx+si],al
00000D74  0000              add [bx+si],al
00000D76  0000              add [bx+si],al
00000D78  0000              add [bx+si],al
00000D7A  0000              add [bx+si],al
00000D7C  0000              add [bx+si],al
00000D7E  0000              add [bx+si],al
00000D80  0000              add [bx+si],al
00000D82  0000              add [bx+si],al
00000D84  0000              add [bx+si],al
00000D86  0000              add [bx+si],al
00000D88  0000              add [bx+si],al
00000D8A  0000              add [bx+si],al
00000D8C  0000              add [bx+si],al
00000D8E  0000              add [bx+si],al
00000D90  0000              add [bx+si],al
00000D92  0000              add [bx+si],al
00000D94  0000              add [bx+si],al
00000D96  0000              add [bx+si],al
00000D98  0000              add [bx+si],al
00000D9A  0000              add [bx+si],al
00000D9C  0000              add [bx+si],al
00000D9E  0000              add [bx+si],al
00000DA0  0000              add [bx+si],al
00000DA2  0000              add [bx+si],al
00000DA4  0000              add [bx+si],al
00000DA6  0000              add [bx+si],al
00000DA8  0000              add [bx+si],al
00000DAA  0000              add [bx+si],al
00000DAC  0000              add [bx+si],al
00000DAE  0000              add [bx+si],al
00000DB0  0000              add [bx+si],al
00000DB2  0000              add [bx+si],al
00000DB4  0000              add [bx+si],al
00000DB6  0000              add [bx+si],al
00000DB8  0000              add [bx+si],al
00000DBA  0000              add [bx+si],al
00000DBC  0000              add [bx+si],al
00000DBE  0000              add [bx+si],al
00000DC0  0000              add [bx+si],al
00000DC2  0000              add [bx+si],al
00000DC4  0000              add [bx+si],al
00000DC6  0000              add [bx+si],al
00000DC8  0000              add [bx+si],al
00000DCA  0000              add [bx+si],al
00000DCC  0000              add [bx+si],al
00000DCE  0000              add [bx+si],al
00000DD0  0000              add [bx+si],al
00000DD2  0000              add [bx+si],al
00000DD4  0000              add [bx+si],al
00000DD6  0000              add [bx+si],al
00000DD8  0000              add [bx+si],al
00000DDA  0000              add [bx+si],al
00000DDC  0000              add [bx+si],al
00000DDE  0000              add [bx+si],al
00000DE0  0000              add [bx+si],al
00000DE2  0000              add [bx+si],al
00000DE4  0000              add [bx+si],al
00000DE6  0000              add [bx+si],al
00000DE8  0000              add [bx+si],al
00000DEA  0000              add [bx+si],al
00000DEC  0000              add [bx+si],al
00000DEE  0000              add [bx+si],al
00000DF0  0000              add [bx+si],al
00000DF2  0000              add [bx+si],al
00000DF4  0000              add [bx+si],al
00000DF6  0000              add [bx+si],al
00000DF8  0000              add [bx+si],al
00000DFA  0000              add [bx+si],al
00000DFC  0000              add [bx+si],al
00000DFE  0000              add [bx+si],al
00000E00  0000              add [bx+si],al
00000E02  0000              add [bx+si],al
00000E04  0000              add [bx+si],al
00000E06  0000              add [bx+si],al
00000E08  0000              add [bx+si],al
00000E0A  0000              add [bx+si],al
00000E0C  0000              add [bx+si],al
00000E0E  0000              add [bx+si],al
00000E10  0000              add [bx+si],al
00000E12  0000              add [bx+si],al
00000E14  0000              add [bx+si],al
00000E16  0000              add [bx+si],al
00000E18  0000              add [bx+si],al
00000E1A  0000              add [bx+si],al
00000E1C  0000              add [bx+si],al
00000E1E  0000              add [bx+si],al
00000E20  0000              add [bx+si],al
00000E22  0000              add [bx+si],al
00000E24  0000              add [bx+si],al
00000E26  0000              add [bx+si],al
00000E28  0000              add [bx+si],al
00000E2A  0000              add [bx+si],al
00000E2C  0000              add [bx+si],al
00000E2E  0000              add [bx+si],al
00000E30  0000              add [bx+si],al
00000E32  0000              add [bx+si],al
00000E34  0000              add [bx+si],al
00000E36  0000              add [bx+si],al
00000E38  0000              add [bx+si],al
00000E3A  0000              add [bx+si],al
00000E3C  0000              add [bx+si],al
00000E3E  0000              add [bx+si],al
00000E40  0000              add [bx+si],al
00000E42  0000              add [bx+si],al
00000E44  0000              add [bx+si],al
00000E46  0000              add [bx+si],al
00000E48  0000              add [bx+si],al
00000E4A  0000              add [bx+si],al
00000E4C  0000              add [bx+si],al
00000E4E  0000              add [bx+si],al
00000E50  0000              add [bx+si],al
00000E52  0000              add [bx+si],al
00000E54  0000              add [bx+si],al
00000E56  0000              add [bx+si],al
00000E58  0000              add [bx+si],al
00000E5A  0000              add [bx+si],al
00000E5C  0000              add [bx+si],al
00000E5E  0000              add [bx+si],al
00000E60  0000              add [bx+si],al
00000E62  0000              add [bx+si],al
00000E64  0000              add [bx+si],al
00000E66  0000              add [bx+si],al
00000E68  0000              add [bx+si],al
00000E6A  0000              add [bx+si],al
00000E6C  0000              add [bx+si],al
00000E6E  0000              add [bx+si],al
00000E70  0000              add [bx+si],al
00000E72  0000              add [bx+si],al
00000E74  0000              add [bx+si],al
00000E76  0000              add [bx+si],al
00000E78  0000              add [bx+si],al
00000E7A  0000              add [bx+si],al
00000E7C  0000              add [bx+si],al
00000E7E  0000              add [bx+si],al
00000E80  0000              add [bx+si],al
00000E82  0000              add [bx+si],al
00000E84  0000              add [bx+si],al
00000E86  0000              add [bx+si],al
00000E88  0000              add [bx+si],al
00000E8A  0000              add [bx+si],al
00000E8C  0000              add [bx+si],al
00000E8E  0000              add [bx+si],al
00000E90  0000              add [bx+si],al
00000E92  0000              add [bx+si],al
00000E94  0000              add [bx+si],al
00000E96  0000              add [bx+si],al
00000E98  0000              add [bx+si],al
00000E9A  0000              add [bx+si],al
00000E9C  0000              add [bx+si],al
00000E9E  0000              add [bx+si],al
00000EA0  0000              add [bx+si],al
00000EA2  0000              add [bx+si],al
00000EA4  0000              add [bx+si],al
00000EA6  0000              add [bx+si],al
00000EA8  0000              add [bx+si],al
00000EAA  0000              add [bx+si],al
00000EAC  0000              add [bx+si],al
00000EAE  0000              add [bx+si],al
00000EB0  0000              add [bx+si],al
00000EB2  0000              add [bx+si],al
00000EB4  0000              add [bx+si],al
00000EB6  0000              add [bx+si],al
00000EB8  0000              add [bx+si],al
00000EBA  0000              add [bx+si],al
00000EBC  0000              add [bx+si],al
00000EBE  0000              add [bx+si],al
00000EC0  0000              add [bx+si],al
00000EC2  0000              add [bx+si],al
00000EC4  0000              add [bx+si],al
00000EC6  0000              add [bx+si],al
00000EC8  0000              add [bx+si],al
00000ECA  0000              add [bx+si],al
00000ECC  0000              add [bx+si],al
00000ECE  0000              add [bx+si],al
00000ED0  0000              add [bx+si],al
00000ED2  0000              add [bx+si],al
00000ED4  0000              add [bx+si],al
00000ED6  0000              add [bx+si],al
00000ED8  0000              add [bx+si],al
00000EDA  0000              add [bx+si],al
00000EDC  0000              add [bx+si],al
00000EDE  0000              add [bx+si],al
00000EE0  0000              add [bx+si],al
00000EE2  0000              add [bx+si],al
00000EE4  0000              add [bx+si],al
00000EE6  0000              add [bx+si],al
00000EE8  0000              add [bx+si],al
00000EEA  0000              add [bx+si],al
00000EEC  0000              add [bx+si],al
00000EEE  0000              add [bx+si],al
00000EF0  0000              add [bx+si],al
00000EF2  0000              add [bx+si],al
00000EF4  0000              add [bx+si],al
00000EF6  0000              add [bx+si],al
00000EF8  0000              add [bx+si],al
00000EFA  0000              add [bx+si],al
00000EFC  0000              add [bx+si],al
00000EFE  0000              add [bx+si],al
00000F00  0000              add [bx+si],al
00000F02  0000              add [bx+si],al
00000F04  0000              add [bx+si],al
00000F06  0000              add [bx+si],al
00000F08  0000              add [bx+si],al
00000F0A  0000              add [bx+si],al
00000F0C  0000              add [bx+si],al
00000F0E  0000              add [bx+si],al
00000F10  0000              add [bx+si],al
00000F12  0000              add [bx+si],al
00000F14  0000              add [bx+si],al
00000F16  0000              add [bx+si],al
00000F18  0000              add [bx+si],al
00000F1A  0000              add [bx+si],al
00000F1C  0000              add [bx+si],al
00000F1E  0000              add [bx+si],al
00000F20  0000              add [bx+si],al
00000F22  0000              add [bx+si],al
00000F24  0000              add [bx+si],al
00000F26  0000              add [bx+si],al
00000F28  0000              add [bx+si],al
00000F2A  0000              add [bx+si],al
00000F2C  0000              add [bx+si],al
00000F2E  0000              add [bx+si],al
00000F30  0000              add [bx+si],al
00000F32  0000              add [bx+si],al
00000F34  0000              add [bx+si],al
00000F36  0000              add [bx+si],al
00000F38  0000              add [bx+si],al
00000F3A  0000              add [bx+si],al
00000F3C  0000              add [bx+si],al
00000F3E  0000              add [bx+si],al
00000F40  0000              add [bx+si],al
00000F42  0000              add [bx+si],al
00000F44  0000              add [bx+si],al
00000F46  0000              add [bx+si],al
00000F48  0000              add [bx+si],al
00000F4A  0000              add [bx+si],al
00000F4C  0000              add [bx+si],al
00000F4E  0000              add [bx+si],al
00000F50  0000              add [bx+si],al
00000F52  0000              add [bx+si],al
00000F54  0000              add [bx+si],al
00000F56  0000              add [bx+si],al
00000F58  0000              add [bx+si],al
00000F5A  0000              add [bx+si],al
00000F5C  0000              add [bx+si],al
00000F5E  0000              add [bx+si],al
00000F60  0000              add [bx+si],al
00000F62  0000              add [bx+si],al
00000F64  0000              add [bx+si],al
00000F66  0000              add [bx+si],al
00000F68  0000              add [bx+si],al
00000F6A  0000              add [bx+si],al
00000F6C  0000              add [bx+si],al
00000F6E  0000              add [bx+si],al
00000F70  0000              add [bx+si],al
00000F72  0000              add [bx+si],al
00000F74  0000              add [bx+si],al
00000F76  0000              add [bx+si],al
00000F78  0000              add [bx+si],al
00000F7A  0000              add [bx+si],al
00000F7C  0000              add [bx+si],al
00000F7E  0000              add [bx+si],al
00000F80  0000              add [bx+si],al
00000F82  0000              add [bx+si],al
00000F84  0000              add [bx+si],al
00000F86  0000              add [bx+si],al
00000F88  0000              add [bx+si],al
00000F8A  0000              add [bx+si],al
00000F8C  0000              add [bx+si],al
00000F8E  0000              add [bx+si],al
00000F90  0000              add [bx+si],al
00000F92  0000              add [bx+si],al
00000F94  0000              add [bx+si],al
00000F96  0000              add [bx+si],al
00000F98  0000              add [bx+si],al
00000F9A  0000              add [bx+si],al
00000F9C  0000              add [bx+si],al
00000F9E  0000              add [bx+si],al
00000FA0  0000              add [bx+si],al
00000FA2  0000              add [bx+si],al
00000FA4  0000              add [bx+si],al
00000FA6  0000              add [bx+si],al
00000FA8  0000              add [bx+si],al
00000FAA  0000              add [bx+si],al
00000FAC  0000              add [bx+si],al
00000FAE  0000              add [bx+si],al
00000FB0  0000              add [bx+si],al
00000FB2  0000              add [bx+si],al
00000FB4  0000              add [bx+si],al
00000FB6  0000              add [bx+si],al
00000FB8  0000              add [bx+si],al
00000FBA  0000              add [bx+si],al
00000FBC  0000              add [bx+si],al
00000FBE  0000              add [bx+si],al
00000FC0  0000              add [bx+si],al
00000FC2  0000              add [bx+si],al
00000FC4  0000              add [bx+si],al
00000FC6  0000              add [bx+si],al
00000FC8  0000              add [bx+si],al
00000FCA  0000              add [bx+si],al
00000FCC  0000              add [bx+si],al
00000FCE  0000              add [bx+si],al
00000FD0  0000              add [bx+si],al
00000FD2  0000              add [bx+si],al
00000FD4  0000              add [bx+si],al
00000FD6  0000              add [bx+si],al
00000FD8  0000              add [bx+si],al
00000FDA  0000              add [bx+si],al
00000FDC  0000              add [bx+si],al
00000FDE  0000              add [bx+si],al
00000FE0  0000              add [bx+si],al
00000FE2  0000              add [bx+si],al
00000FE4  0000              add [bx+si],al
00000FE6  0000              add [bx+si],al
00000FE8  0000              add [bx+si],al
00000FEA  0000              add [bx+si],al
00000FEC  0000              add [bx+si],al
00000FEE  0000              add [bx+si],al
00000FF0  0000              add [bx+si],al
00000FF2  0000              add [bx+si],al
00000FF4  0000              add [bx+si],al
00000FF6  0000              add [bx+si],al
00000FF8  0000              add [bx+si],al
00000FFA  0000              add [bx+si],al
00000FFC  0000              add [bx+si],al
00000FFE  0000              add [bx+si],al
00001000  0000              add [bx+si],al
00001002  0000              add [bx+si],al
00001004  0000              add [bx+si],al
00001006  0000              add [bx+si],al
00001008  0000              add [bx+si],al
0000100A  0000              add [bx+si],al
0000100C  0000              add [bx+si],al
0000100E  0000              add [bx+si],al
00001010  0000              add [bx+si],al
00001012  0000              add [bx+si],al
00001014  0000              add [bx+si],al
00001016  0000              add [bx+si],al
00001018  0000              add [bx+si],al
0000101A  0000              add [bx+si],al
0000101C  0000              add [bx+si],al
0000101E  0000              add [bx+si],al
00001020  0000              add [bx+si],al
00001022  0000              add [bx+si],al
00001024  0000              add [bx+si],al
00001026  0000              add [bx+si],al
00001028  0000              add [bx+si],al
0000102A  0000              add [bx+si],al
0000102C  0000              add [bx+si],al
0000102E  0000              add [bx+si],al
00001030  0000              add [bx+si],al
00001032  0000              add [bx+si],al
00001034  0000              add [bx+si],al
00001036  0000              add [bx+si],al
00001038  0000              add [bx+si],al
0000103A  0000              add [bx+si],al
0000103C  0000              add [bx+si],al
0000103E  0000              add [bx+si],al
00001040  0000              add [bx+si],al
00001042  0000              add [bx+si],al
00001044  0000              add [bx+si],al
00001046  0000              add [bx+si],al
00001048  0000              add [bx+si],al
0000104A  0000              add [bx+si],al
0000104C  0000              add [bx+si],al
0000104E  0000              add [bx+si],al
00001050  0000              add [bx+si],al
00001052  0000              add [bx+si],al
00001054  0000              add [bx+si],al
00001056  0000              add [bx+si],al
00001058  0000              add [bx+si],al
0000105A  0000              add [bx+si],al
0000105C  0000              add [bx+si],al
0000105E  0000              add [bx+si],al
00001060  0000              add [bx+si],al
00001062  0000              add [bx+si],al
00001064  0000              add [bx+si],al
00001066  0000              add [bx+si],al
00001068  0000              add [bx+si],al
0000106A  0000              add [bx+si],al
0000106C  0000              add [bx+si],al
0000106E  0000              add [bx+si],al
00001070  0000              add [bx+si],al
00001072  0000              add [bx+si],al
00001074  0000              add [bx+si],al
00001076  0000              add [bx+si],al
00001078  0000              add [bx+si],al
0000107A  0000              add [bx+si],al
0000107C  0000              add [bx+si],al
0000107E  0000              add [bx+si],al
00001080  0000              add [bx+si],al
00001082  0000              add [bx+si],al
00001084  0000              add [bx+si],al
00001086  0000              add [bx+si],al
00001088  0000              add [bx+si],al
0000108A  0000              add [bx+si],al
0000108C  0000              add [bx+si],al
0000108E  0000              add [bx+si],al
00001090  0000              add [bx+si],al
00001092  0000              add [bx+si],al
00001094  0000              add [bx+si],al
00001096  0000              add [bx+si],al
00001098  0000              add [bx+si],al
0000109A  0000              add [bx+si],al
0000109C  0000              add [bx+si],al
0000109E  0000              add [bx+si],al
000010A0  0000              add [bx+si],al
000010A2  0000              add [bx+si],al
000010A4  0000              add [bx+si],al
000010A6  0000              add [bx+si],al
000010A8  0000              add [bx+si],al
000010AA  0000              add [bx+si],al
000010AC  0000              add [bx+si],al
000010AE  0000              add [bx+si],al
000010B0  0000              add [bx+si],al
000010B2  0000              add [bx+si],al
000010B4  0000              add [bx+si],al
000010B6  0000              add [bx+si],al
000010B8  0000              add [bx+si],al
000010BA  0000              add [bx+si],al
000010BC  0000              add [bx+si],al
000010BE  0000              add [bx+si],al
000010C0  0000              add [bx+si],al
000010C2  0000              add [bx+si],al
000010C4  0000              add [bx+si],al
000010C6  0000              add [bx+si],al
000010C8  0000              add [bx+si],al
000010CA  0000              add [bx+si],al
000010CC  0000              add [bx+si],al
000010CE  0000              add [bx+si],al
000010D0  0000              add [bx+si],al
000010D2  0000              add [bx+si],al
000010D4  0000              add [bx+si],al
000010D6  0000              add [bx+si],al
000010D8  0000              add [bx+si],al
000010DA  0000              add [bx+si],al
000010DC  0000              add [bx+si],al
000010DE  0000              add [bx+si],al
000010E0  0000              add [bx+si],al
000010E2  0000              add [bx+si],al
000010E4  0000              add [bx+si],al
000010E6  0000              add [bx+si],al
000010E8  0000              add [bx+si],al
000010EA  0000              add [bx+si],al
000010EC  0000              add [bx+si],al
000010EE  0000              add [bx+si],al
000010F0  0000              add [bx+si],al
000010F2  0000              add [bx+si],al
000010F4  0000              add [bx+si],al
000010F6  0000              add [bx+si],al
000010F8  0000              add [bx+si],al
000010FA  0000              add [bx+si],al
000010FC  0000              add [bx+si],al
000010FE  0000              add [bx+si],al
00001100  0000              add [bx+si],al
00001102  0000              add [bx+si],al
00001104  0000              add [bx+si],al
00001106  0000              add [bx+si],al
00001108  0000              add [bx+si],al
0000110A  0000              add [bx+si],al
0000110C  0000              add [bx+si],al
0000110E  0000              add [bx+si],al
00001110  0000              add [bx+si],al
00001112  0000              add [bx+si],al
00001114  0000              add [bx+si],al
00001116  0000              add [bx+si],al
00001118  0000              add [bx+si],al
0000111A  0000              add [bx+si],al
0000111C  0000              add [bx+si],al
0000111E  0000              add [bx+si],al
00001120  0000              add [bx+si],al
00001122  0000              add [bx+si],al
00001124  0000              add [bx+si],al
00001126  0000              add [bx+si],al
00001128  0000              add [bx+si],al
0000112A  0000              add [bx+si],al
0000112C  0000              add [bx+si],al
0000112E  0000              add [bx+si],al
00001130  0000              add [bx+si],al
00001132  0000              add [bx+si],al
00001134  0000              add [bx+si],al
00001136  0000              add [bx+si],al
00001138  0000              add [bx+si],al
0000113A  0000              add [bx+si],al
0000113C  0000              add [bx+si],al
0000113E  0000              add [bx+si],al
00001140  0000              add [bx+si],al
00001142  0000              add [bx+si],al
00001144  0000              add [bx+si],al
00001146  0000              add [bx+si],al
00001148  0000              add [bx+si],al
0000114A  0000              add [bx+si],al
0000114C  0000              add [bx+si],al
0000114E  0000              add [bx+si],al
00001150  0000              add [bx+si],al
00001152  0000              add [bx+si],al
00001154  0000              add [bx+si],al
00001156  0000              add [bx+si],al
00001158  0000              add [bx+si],al
0000115A  0000              add [bx+si],al
0000115C  0000              add [bx+si],al
0000115E  0000              add [bx+si],al
00001160  0000              add [bx+si],al
00001162  0000              add [bx+si],al
00001164  0000              add [bx+si],al
00001166  0000              add [bx+si],al
00001168  0000              add [bx+si],al
0000116A  0000              add [bx+si],al
0000116C  0000              add [bx+si],al
0000116E  0000              add [bx+si],al
00001170  0000              add [bx+si],al
00001172  0000              add [bx+si],al
00001174  0000              add [bx+si],al
00001176  0000              add [bx+si],al
00001178  0000              add [bx+si],al
0000117A  0000              add [bx+si],al
0000117C  0000              add [bx+si],al
0000117E  0000              add [bx+si],al
00001180  0000              add [bx+si],al
00001182  0000              add [bx+si],al
00001184  0000              add [bx+si],al
00001186  0000              add [bx+si],al
00001188  0000              add [bx+si],al
0000118A  0000              add [bx+si],al
0000118C  0000              add [bx+si],al
0000118E  0000              add [bx+si],al
00001190  0000              add [bx+si],al
00001192  0000              add [bx+si],al
00001194  0000              add [bx+si],al
00001196  0000              add [bx+si],al
00001198  0000              add [bx+si],al
0000119A  0000              add [bx+si],al
0000119C  0000              add [bx+si],al
0000119E  0000              add [bx+si],al
000011A0  0000              add [bx+si],al
000011A2  0000              add [bx+si],al
000011A4  0000              add [bx+si],al
000011A6  0000              add [bx+si],al
000011A8  0000              add [bx+si],al
000011AA  0000              add [bx+si],al
000011AC  0000              add [bx+si],al
000011AE  0000              add [bx+si],al
000011B0  0000              add [bx+si],al
000011B2  0000              add [bx+si],al
000011B4  0000              add [bx+si],al
000011B6  0000              add [bx+si],al
000011B8  0000              add [bx+si],al
000011BA  0000              add [bx+si],al
000011BC  0000              add [bx+si],al
000011BE  0000              add [bx+si],al
000011C0  0000              add [bx+si],al
000011C2  0000              add [bx+si],al
000011C4  0000              add [bx+si],al
000011C6  0000              add [bx+si],al
000011C8  0000              add [bx+si],al
000011CA  0000              add [bx+si],al
000011CC  0000              add [bx+si],al
000011CE  0000              add [bx+si],al
000011D0  0000              add [bx+si],al
000011D2  0000              add [bx+si],al
000011D4  0000              add [bx+si],al
000011D6  0000              add [bx+si],al
000011D8  0000              add [bx+si],al
000011DA  0000              add [bx+si],al
000011DC  0000              add [bx+si],al
000011DE  0000              add [bx+si],al
000011E0  0000              add [bx+si],al
000011E2  0000              add [bx+si],al
000011E4  0000              add [bx+si],al
000011E6  0000              add [bx+si],al
000011E8  0000              add [bx+si],al
000011EA  0000              add [bx+si],al
000011EC  0000              add [bx+si],al
000011EE  0000              add [bx+si],al
000011F0  0000              add [bx+si],al
000011F2  0000              add [bx+si],al
000011F4  0000              add [bx+si],al
000011F6  0000              add [bx+si],al
000011F8  0000              add [bx+si],al
000011FA  0000              add [bx+si],al
000011FC  0000              add [bx+si],al
000011FE  0000              add [bx+si],al
00001200  0000              add [bx+si],al
00001202  0000              add [bx+si],al
00001204  0000              add [bx+si],al
00001206  0000              add [bx+si],al
00001208  0000              add [bx+si],al
0000120A  0000              add [bx+si],al
0000120C  0000              add [bx+si],al
0000120E  0000              add [bx+si],al
00001210  0000              add [bx+si],al
00001212  0000              add [bx+si],al
00001214  0000              add [bx+si],al
00001216  0000              add [bx+si],al
00001218  0000              add [bx+si],al
0000121A  0000              add [bx+si],al
0000121C  0000              add [bx+si],al
0000121E  0000              add [bx+si],al
00001220  0000              add [bx+si],al
00001222  0000              add [bx+si],al
00001224  0000              add [bx+si],al
00001226  0000              add [bx+si],al
00001228  0000              add [bx+si],al
0000122A  0000              add [bx+si],al
0000122C  0000              add [bx+si],al
0000122E  0000              add [bx+si],al
00001230  0000              add [bx+si],al
00001232  0000              add [bx+si],al
00001234  0000              add [bx+si],al
00001236  0000              add [bx+si],al
00001238  0000              add [bx+si],al
0000123A  0000              add [bx+si],al
0000123C  0000              add [bx+si],al
0000123E  0000              add [bx+si],al
00001240  0000              add [bx+si],al
00001242  0000              add [bx+si],al
00001244  0000              add [bx+si],al
00001246  0000              add [bx+si],al
00001248  0000              add [bx+si],al
0000124A  0000              add [bx+si],al
0000124C  0000              add [bx+si],al
0000124E  0000              add [bx+si],al
00001250  0000              add [bx+si],al
00001252  0000              add [bx+si],al
00001254  0000              add [bx+si],al
00001256  0000              add [bx+si],al
00001258  0000              add [bx+si],al
0000125A  0000              add [bx+si],al
0000125C  0000              add [bx+si],al
0000125E  0000              add [bx+si],al
00001260  0000              add [bx+si],al
00001262  0000              add [bx+si],al
00001264  0000              add [bx+si],al
00001266  0000              add [bx+si],al
00001268  0000              add [bx+si],al
0000126A  0000              add [bx+si],al
0000126C  0000              add [bx+si],al
0000126E  0000              add [bx+si],al
00001270  0000              add [bx+si],al
00001272  0000              add [bx+si],al
00001274  0000              add [bx+si],al
00001276  0000              add [bx+si],al
00001278  0000              add [bx+si],al
0000127A  0000              add [bx+si],al
0000127C  0000              add [bx+si],al
0000127E  0000              add [bx+si],al
00001280  0000              add [bx+si],al
00001282  0000              add [bx+si],al
00001284  0000              add [bx+si],al
00001286  0000              add [bx+si],al
00001288  0000              add [bx+si],al
0000128A  0000              add [bx+si],al
0000128C  0000              add [bx+si],al
0000128E  0000              add [bx+si],al
00001290  0000              add [bx+si],al
00001292  0000              add [bx+si],al
00001294  0000              add [bx+si],al
00001296  0000              add [bx+si],al
00001298  0000              add [bx+si],al
0000129A  0000              add [bx+si],al
0000129C  0000              add [bx+si],al
0000129E  0000              add [bx+si],al
000012A0  0000              add [bx+si],al
000012A2  0000              add [bx+si],al
000012A4  0000              add [bx+si],al
000012A6  0000              add [bx+si],al
000012A8  0000              add [bx+si],al
000012AA  0000              add [bx+si],al
000012AC  0000              add [bx+si],al
000012AE  0000              add [bx+si],al
000012B0  0000              add [bx+si],al
000012B2  0000              add [bx+si],al
000012B4  0000              add [bx+si],al
000012B6  0000              add [bx+si],al
000012B8  0000              add [bx+si],al
000012BA  0000              add [bx+si],al
000012BC  0000              add [bx+si],al
000012BE  0000              add [bx+si],al
000012C0  0000              add [bx+si],al
000012C2  0000              add [bx+si],al
000012C4  0000              add [bx+si],al
000012C6  0000              add [bx+si],al
000012C8  0000              add [bx+si],al
000012CA  0000              add [bx+si],al
000012CC  0000              add [bx+si],al
000012CE  0000              add [bx+si],al
000012D0  0000              add [bx+si],al
000012D2  0000              add [bx+si],al
000012D4  0000              add [bx+si],al
000012D6  0000              add [bx+si],al
000012D8  0000              add [bx+si],al
000012DA  0000              add [bx+si],al
000012DC  0000              add [bx+si],al
000012DE  0000              add [bx+si],al
000012E0  0000              add [bx+si],al
000012E2  0000              add [bx+si],al
000012E4  0000              add [bx+si],al
000012E6  0000              add [bx+si],al
000012E8  0000              add [bx+si],al
000012EA  0000              add [bx+si],al
000012EC  0000              add [bx+si],al
000012EE  0000              add [bx+si],al
000012F0  0000              add [bx+si],al
000012F2  0000              add [bx+si],al
000012F4  0000              add [bx+si],al
000012F6  0000              add [bx+si],al
000012F8  0000              add [bx+si],al
000012FA  0000              add [bx+si],al
000012FC  0000              add [bx+si],al
000012FE  0000              add [bx+si],al
00001300  0000              add [bx+si],al
00001302  0000              add [bx+si],al
00001304  0000              add [bx+si],al
00001306  0000              add [bx+si],al
00001308  0000              add [bx+si],al
0000130A  0000              add [bx+si],al
0000130C  0000              add [bx+si],al
0000130E  0000              add [bx+si],al
00001310  0000              add [bx+si],al
00001312  0000              add [bx+si],al
00001314  0000              add [bx+si],al
00001316  0000              add [bx+si],al
00001318  0000              add [bx+si],al
0000131A  0000              add [bx+si],al
0000131C  0000              add [bx+si],al
0000131E  0000              add [bx+si],al
00001320  0000              add [bx+si],al
00001322  0000              add [bx+si],al
00001324  0000              add [bx+si],al
00001326  0000              add [bx+si],al
00001328  0000              add [bx+si],al
0000132A  0000              add [bx+si],al
0000132C  0000              add [bx+si],al
0000132E  0000              add [bx+si],al
00001330  0000              add [bx+si],al
00001332  0000              add [bx+si],al
00001334  0000              add [bx+si],al
00001336  0000              add [bx+si],al
00001338  0000              add [bx+si],al
0000133A  0000              add [bx+si],al
0000133C  0000              add [bx+si],al
0000133E  0000              add [bx+si],al
00001340  0000              add [bx+si],al
00001342  0000              add [bx+si],al
00001344  0000              add [bx+si],al
00001346  0000              add [bx+si],al
00001348  0000              add [bx+si],al
0000134A  0000              add [bx+si],al
0000134C  0000              add [bx+si],al
0000134E  0000              add [bx+si],al
00001350  0000              add [bx+si],al
00001352  0000              add [bx+si],al
00001354  0000              add [bx+si],al
00001356  0000              add [bx+si],al
00001358  0000              add [bx+si],al
0000135A  0000              add [bx+si],al
0000135C  0000              add [bx+si],al
0000135E  0000              add [bx+si],al
00001360  0000              add [bx+si],al
00001362  0000              add [bx+si],al
00001364  0000              add [bx+si],al
00001366  0000              add [bx+si],al
00001368  0000              add [bx+si],al
0000136A  0000              add [bx+si],al
0000136C  0000              add [bx+si],al
0000136E  0000              add [bx+si],al
00001370  0000              add [bx+si],al
00001372  0000              add [bx+si],al
00001374  0000              add [bx+si],al
00001376  0000              add [bx+si],al
00001378  0000              add [bx+si],al
0000137A  0000              add [bx+si],al
0000137C  0000              add [bx+si],al
0000137E  0000              add [bx+si],al
00001380  0000              add [bx+si],al
00001382  0000              add [bx+si],al
00001384  0000              add [bx+si],al
00001386  0000              add [bx+si],al
00001388  0000              add [bx+si],al
0000138A  0000              add [bx+si],al
0000138C  0000              add [bx+si],al
0000138E  0000              add [bx+si],al
00001390  0000              add [bx+si],al
00001392  0000              add [bx+si],al
00001394  0000              add [bx+si],al
00001396  0000              add [bx+si],al
00001398  0000              add [bx+si],al
0000139A  0000              add [bx+si],al
0000139C  0000              add [bx+si],al
0000139E  0000              add [bx+si],al
000013A0  0000              add [bx+si],al
000013A2  0000              add [bx+si],al
000013A4  0000              add [bx+si],al
000013A6  0000              add [bx+si],al
000013A8  0000              add [bx+si],al
000013AA  0000              add [bx+si],al
000013AC  0000              add [bx+si],al
000013AE  0000              add [bx+si],al
000013B0  0000              add [bx+si],al
000013B2  0000              add [bx+si],al
000013B4  0000              add [bx+si],al
000013B6  0000              add [bx+si],al
000013B8  0000              add [bx+si],al
000013BA  0000              add [bx+si],al
000013BC  0000              add [bx+si],al
000013BE  0000              add [bx+si],al
000013C0  0000              add [bx+si],al
000013C2  0000              add [bx+si],al
000013C4  0000              add [bx+si],al
000013C6  0000              add [bx+si],al
000013C8  0000              add [bx+si],al
000013CA  0000              add [bx+si],al
000013CC  0000              add [bx+si],al
000013CE  0000              add [bx+si],al
000013D0  0000              add [bx+si],al
000013D2  0000              add [bx+si],al
000013D4  0000              add [bx+si],al
000013D6  0000              add [bx+si],al
000013D8  0000              add [bx+si],al
000013DA  0000              add [bx+si],al
000013DC  0000              add [bx+si],al
000013DE  0000              add [bx+si],al
000013E0  0000              add [bx+si],al
000013E2  0000              add [bx+si],al
000013E4  0000              add [bx+si],al
000013E6  0000              add [bx+si],al
000013E8  0000              add [bx+si],al
000013EA  0000              add [bx+si],al
000013EC  0000              add [bx+si],al
000013EE  0000              add [bx+si],al
000013F0  0000              add [bx+si],al
000013F2  0000              add [bx+si],al
000013F4  0000              add [bx+si],al
000013F6  0000              add [bx+si],al
000013F8  0000              add [bx+si],al
000013FA  0000              add [bx+si],al
000013FC  0000              add [bx+si],al
000013FE  0000              add [bx+si],al
00001400  0000              add [bx+si],al
00001402  0000              add [bx+si],al
00001404  0000              add [bx+si],al
00001406  0000              add [bx+si],al
00001408  0000              add [bx+si],al
0000140A  0000              add [bx+si],al
0000140C  0000              add [bx+si],al
0000140E  0000              add [bx+si],al
00001410  0000              add [bx+si],al
00001412  0000              add [bx+si],al
00001414  0000              add [bx+si],al
00001416  0000              add [bx+si],al
00001418  0000              add [bx+si],al
0000141A  0000              add [bx+si],al
0000141C  0000              add [bx+si],al
0000141E  0000              add [bx+si],al
00001420  0000              add [bx+si],al
00001422  0000              add [bx+si],al
00001424  0000              add [bx+si],al
00001426  0000              add [bx+si],al
00001428  0000              add [bx+si],al
0000142A  0000              add [bx+si],al
0000142C  0000              add [bx+si],al
0000142E  0000              add [bx+si],al
00001430  0000              add [bx+si],al
00001432  0000              add [bx+si],al
00001434  0000              add [bx+si],al
00001436  0000              add [bx+si],al
00001438  0000              add [bx+si],al
0000143A  0000              add [bx+si],al
0000143C  0000              add [bx+si],al
0000143E  0000              add [bx+si],al
00001440  0000              add [bx+si],al
00001442  0000              add [bx+si],al
00001444  0000              add [bx+si],al
00001446  0000              add [bx+si],al
00001448  0000              add [bx+si],al
0000144A  0000              add [bx+si],al
0000144C  0000              add [bx+si],al
0000144E  0000              add [bx+si],al
00001450  0000              add [bx+si],al
00001452  0000              add [bx+si],al
00001454  0000              add [bx+si],al
00001456  0000              add [bx+si],al
00001458  0000              add [bx+si],al
0000145A  0000              add [bx+si],al
0000145C  0000              add [bx+si],al
0000145E  0000              add [bx+si],al
00001460  0000              add [bx+si],al
00001462  0000              add [bx+si],al
00001464  0000              add [bx+si],al
00001466  0000              add [bx+si],al
00001468  0000              add [bx+si],al
0000146A  0000              add [bx+si],al
0000146C  0000              add [bx+si],al
0000146E  0000              add [bx+si],al
00001470  0000              add [bx+si],al
00001472  0000              add [bx+si],al
00001474  0000              add [bx+si],al
00001476  0000              add [bx+si],al
00001478  0000              add [bx+si],al
0000147A  0000              add [bx+si],al
0000147C  0000              add [bx+si],al
0000147E  0000              add [bx+si],al
00001480  0000              add [bx+si],al
00001482  0000              add [bx+si],al
00001484  0000              add [bx+si],al
00001486  0000              add [bx+si],al
00001488  0000              add [bx+si],al
0000148A  0000              add [bx+si],al
0000148C  0000              add [bx+si],al
0000148E  0000              add [bx+si],al
00001490  0000              add [bx+si],al
00001492  0000              add [bx+si],al
00001494  0000              add [bx+si],al
00001496  0000              add [bx+si],al
00001498  0000              add [bx+si],al
0000149A  0000              add [bx+si],al
0000149C  0000              add [bx+si],al
0000149E  0000              add [bx+si],al
000014A0  0000              add [bx+si],al
000014A2  0000              add [bx+si],al
000014A4  0000              add [bx+si],al
000014A6  0000              add [bx+si],al
000014A8  0000              add [bx+si],al
000014AA  0000              add [bx+si],al
000014AC  0000              add [bx+si],al
000014AE  0000              add [bx+si],al
000014B0  0000              add [bx+si],al
000014B2  0000              add [bx+si],al
000014B4  0000              add [bx+si],al
000014B6  0000              add [bx+si],al
000014B8  0000              add [bx+si],al
000014BA  0000              add [bx+si],al
000014BC  0000              add [bx+si],al
000014BE  0000              add [bx+si],al
000014C0  0000              add [bx+si],al
000014C2  0000              add [bx+si],al
000014C4  0000              add [bx+si],al
000014C6  0000              add [bx+si],al
000014C8  0000              add [bx+si],al
000014CA  0000              add [bx+si],al
000014CC  0000              add [bx+si],al
000014CE  0000              add [bx+si],al
000014D0  0000              add [bx+si],al
000014D2  0000              add [bx+si],al
000014D4  0000              add [bx+si],al
000014D6  0000              add [bx+si],al
000014D8  0000              add [bx+si],al
000014DA  0000              add [bx+si],al
000014DC  0000              add [bx+si],al
000014DE  0000              add [bx+si],al
000014E0  0000              add [bx+si],al
000014E2  0000              add [bx+si],al
000014E4  0000              add [bx+si],al
000014E6  0000              add [bx+si],al
000014E8  0000              add [bx+si],al
000014EA  0000              add [bx+si],al
000014EC  0000              add [bx+si],al
000014EE  0000              add [bx+si],al
000014F0  0000              add [bx+si],al
000014F2  0000              add [bx+si],al
000014F4  0000              add [bx+si],al
000014F6  0000              add [bx+si],al
000014F8  0000              add [bx+si],al
000014FA  0000              add [bx+si],al
000014FC  0000              add [bx+si],al
000014FE  0000              add [bx+si],al
00001500  0000              add [bx+si],al
00001502  0000              add [bx+si],al
00001504  0000              add [bx+si],al
00001506  0000              add [bx+si],al
00001508  0000              add [bx+si],al
0000150A  0000              add [bx+si],al
0000150C  0000              add [bx+si],al
0000150E  0000              add [bx+si],al
00001510  0000              add [bx+si],al
00001512  0000              add [bx+si],al
00001514  0000              add [bx+si],al
00001516  0000              add [bx+si],al
00001518  0000              add [bx+si],al
0000151A  0000              add [bx+si],al
0000151C  0000              add [bx+si],al
0000151E  0000              add [bx+si],al
00001520  0000              add [bx+si],al
00001522  0000              add [bx+si],al
00001524  0000              add [bx+si],al
00001526  0000              add [bx+si],al
00001528  0000              add [bx+si],al
0000152A  0000              add [bx+si],al
0000152C  0000              add [bx+si],al
0000152E  0000              add [bx+si],al
00001530  0000              add [bx+si],al
00001532  0000              add [bx+si],al
00001534  0000              add [bx+si],al
00001536  0000              add [bx+si],al
00001538  0000              add [bx+si],al
0000153A  0000              add [bx+si],al
0000153C  0000              add [bx+si],al
0000153E  0000              add [bx+si],al
00001540  0000              add [bx+si],al
00001542  0000              add [bx+si],al
00001544  0000              add [bx+si],al
00001546  0000              add [bx+si],al
00001548  0000              add [bx+si],al
0000154A  0000              add [bx+si],al
0000154C  0000              add [bx+si],al
0000154E  0000              add [bx+si],al
00001550  0000              add [bx+si],al
00001552  0000              add [bx+si],al
00001554  0000              add [bx+si],al
00001556  0000              add [bx+si],al
00001558  0000              add [bx+si],al
0000155A  0000              add [bx+si],al
0000155C  0000              add [bx+si],al
0000155E  0000              add [bx+si],al
00001560  0000              add [bx+si],al
00001562  0000              add [bx+si],al
00001564  0000              add [bx+si],al
00001566  0000              add [bx+si],al
00001568  0000              add [bx+si],al
0000156A  0000              add [bx+si],al
0000156C  0000              add [bx+si],al
0000156E  0000              add [bx+si],al
00001570  0000              add [bx+si],al
00001572  0000              add [bx+si],al
00001574  0000              add [bx+si],al
00001576  0000              add [bx+si],al
00001578  0000              add [bx+si],al
0000157A  0000              add [bx+si],al
0000157C  0000              add [bx+si],al
0000157E  0000              add [bx+si],al
00001580  0000              add [bx+si],al
00001582  0000              add [bx+si],al
00001584  0000              add [bx+si],al
00001586  0000              add [bx+si],al
00001588  0000              add [bx+si],al
0000158A  0000              add [bx+si],al
0000158C  0000              add [bx+si],al
0000158E  0000              add [bx+si],al
00001590  0000              add [bx+si],al
00001592  0000              add [bx+si],al
00001594  0000              add [bx+si],al
00001596  0000              add [bx+si],al
00001598  0000              add [bx+si],al
0000159A  0000              add [bx+si],al
0000159C  0000              add [bx+si],al
0000159E  0000              add [bx+si],al
000015A0  0000              add [bx+si],al
000015A2  0000              add [bx+si],al
000015A4  0000              add [bx+si],al
000015A6  0000              add [bx+si],al
000015A8  0000              add [bx+si],al
000015AA  0000              add [bx+si],al
000015AC  0000              add [bx+si],al
000015AE  0000              add [bx+si],al
000015B0  0000              add [bx+si],al
000015B2  0000              add [bx+si],al
000015B4  0000              add [bx+si],al
000015B6  0000              add [bx+si],al
000015B8  0000              add [bx+si],al
000015BA  0000              add [bx+si],al
000015BC  0000              add [bx+si],al
000015BE  0000              add [bx+si],al
000015C0  0000              add [bx+si],al
000015C2  0000              add [bx+si],al
000015C4  0000              add [bx+si],al
000015C6  0000              add [bx+si],al
000015C8  0000              add [bx+si],al
000015CA  0000              add [bx+si],al
000015CC  0000              add [bx+si],al
000015CE  0000              add [bx+si],al
000015D0  0000              add [bx+si],al
000015D2  0000              add [bx+si],al
000015D4  0000              add [bx+si],al
000015D6  0000              add [bx+si],al
000015D8  0000              add [bx+si],al
000015DA  0000              add [bx+si],al
000015DC  0000              add [bx+si],al
000015DE  0000              add [bx+si],al
000015E0  0000              add [bx+si],al
000015E2  0000              add [bx+si],al
000015E4  0000              add [bx+si],al
000015E6  0000              add [bx+si],al
000015E8  0000              add [bx+si],al
000015EA  0000              add [bx+si],al
000015EC  0000              add [bx+si],al
000015EE  0000              add [bx+si],al
000015F0  0000              add [bx+si],al
000015F2  0000              add [bx+si],al
000015F4  0000              add [bx+si],al
000015F6  0000              add [bx+si],al
000015F8  0000              add [bx+si],al
000015FA  0000              add [bx+si],al
000015FC  0000              add [bx+si],al
000015FE  0000              add [bx+si],al
00001600  0000              add [bx+si],al
00001602  0000              add [bx+si],al
00001604  0000              add [bx+si],al
00001606  0000              add [bx+si],al
00001608  0000              add [bx+si],al
0000160A  0000              add [bx+si],al
0000160C  0000              add [bx+si],al
0000160E  0000              add [bx+si],al
00001610  0000              add [bx+si],al
00001612  0000              add [bx+si],al
00001614  0000              add [bx+si],al
00001616  0000              add [bx+si],al
00001618  0000              add [bx+si],al
0000161A  0000              add [bx+si],al
0000161C  00                db 0x00
